
riscv-v2_or:     file format elf32-littleriscv


Disassembly of section .text:

00002000 <_start>:
    2000:	0800017b 	mfpcr	ra,cr0
    2004:	087dff93 	and	ra,ra,-129
    2008:	000201fb 	mtpcr	zero,ra,cr0
    200c:	d8000013 	li	s7,0

00002010 <stats>:
    2010:	02b601fb 	mtpcr	zero,s7,cr10
    2014:	00000013 	nop
    2018:	00000013 	nop
    201c:	00000013 	nop
    2020:	00000013 	nop

00002024 <test_2>:
    2024:	0ff80837 	lui	ra,0xff010
    2028:	087c0013 	add	ra,ra,-256
    202c:	107878b7 	lui	v0,0xf0f1
    2030:	10bc3c13 	add	v0,v0,-241
    2034:	18440333 	or	v1,ra,v0
    2038:	eff88037 	lui	s9,0xff100
    203c:	ef7c3c13 	add	s9,s9,-241
    2040:	e0000813 	li	s8,2
    2044:	20fac0e3 	bne	v1,s9,24a4 <fail>

00002048 <test_3>:
    2048:	087f80b7 	lui	ra,0xff01
    204c:	087fc013 	add	ra,ra,-16
    2050:	178787b7 	lui	v0,0xf0f0f
    2054:	1083c013 	add	v0,v0,240
    2058:	18440333 	or	v1,ra,v0
    205c:	efff8837 	lui	s9,0xfff10
    2060:	ef7fc013 	add	s9,s9,-16
    2064:	e0000c13 	li	s8,3
    2068:	20fa78e3 	bne	v1,s9,24a4 <fail>

0000206c <test_4>:
    206c:	0807f837 	lui	ra,0xff0
    2070:	0843fc13 	add	ra,ra,255
    2074:	107878b7 	lui	v0,0xf0f1
    2078:	10bc3c13 	add	v0,v0,-241
    207c:	18440333 	or	v1,ra,v0
    2080:	e87ff8b7 	lui	s9,0xfff1
    2084:	ef7ffc13 	add	s9,s9,-1
    2088:	e0001013 	li	s8,4
    208c:	20fa30e3 	bne	v1,s9,24a4 <fail>

00002090 <test_5>:
    2090:	0f807fb7 	lui	ra,0xf00ff
    2094:	08403c13 	add	ra,ra,15
    2098:	178787b7 	lui	v0,0xf0f0f
    209c:	1083c013 	add	v0,v0,240
    20a0:	18440333 	or	v1,ra,v0
    20a4:	ef87ffb7 	lui	s9,0xf0fff
    20a8:	ef43fc13 	add	s9,s9,255
    20ac:	e0001413 	li	s8,5
    20b0:	18fbe8e3 	bne	v1,s9,24a4 <fail>

000020b4 <test_6>:
    20b4:	0ff80837 	lui	ra,0xff010
    20b8:	087c0013 	add	ra,ra,-256
    20bc:	107878b7 	lui	v0,0xf0f1
    20c0:	10bc3c13 	add	v0,v0,-241
    20c4:	08440333 	or	ra,ra,v0
    20c8:	eff88037 	lui	s9,0xff100
    20cc:	ef7c3c13 	add	s9,s9,-241
    20d0:	e0001813 	li	s8,6
    20d4:	187ba0e3 	bne	ra,s9,24a4 <fail>

000020d8 <test_7>:
    20d8:	0ff80837 	lui	ra,0xff010
    20dc:	087c0013 	add	ra,ra,-256
    20e0:	107878b7 	lui	v0,0xf0f1
    20e4:	10bc3c13 	add	v0,v0,-241
    20e8:	10440333 	or	v0,ra,v0
    20ec:	eff88037 	lui	s9,0xff100
    20f0:	ef7c3c13 	add	s9,s9,-241
    20f4:	e0001c13 	li	s8,7
    20f8:	18bb58e3 	bne	v0,s9,24a4 <fail>

000020fc <test_8>:
    20fc:	0ff80837 	lui	ra,0xff010
    2100:	087c0013 	add	ra,ra,-256
    2104:	08420333 	or	ra,ra,ra
    2108:	eff80837 	lui	s9,0xff010
    210c:	ef7c0013 	add	s9,s9,-256
    2110:	e0002013 	li	s8,8
    2114:	187b20e3 	bne	ra,s9,24a4 <fail>

00002118 <test_9>:
    2118:	20000013 	li	a0,0
    211c:	0ff80837 	lui	ra,0xff010
    2120:	087c0013 	add	ra,ra,-256
    2124:	107878b7 	lui	v0,0xf0f1
    2128:	10bc3c13 	add	v0,v0,-241
    212c:	18440333 	or	v1,ra,v0
    2130:	30c00013 	move	a2,v1
    2134:	21000413 	add	a0,a0,1
    2138:	28000813 	li	a1,2
    213c:	f90bc0e3 	bne	a0,a1,211c <test_9+0x4>
    2140:	eff88037 	lui	s9,0xff100
    2144:	ef7c3c13 	add	s9,s9,-241
    2148:	e0002413 	li	s8,9
    214c:	19bab0e3 	bne	a2,s9,24a4 <fail>

00002150 <test_10>:
    2150:	20000013 	li	a0,0
    2154:	087f80b7 	lui	ra,0xff01
    2158:	087fc013 	add	ra,ra,-16
    215c:	178787b7 	lui	v0,0xf0f0f
    2160:	1083c013 	add	v0,v0,240
    2164:	18440333 	or	v1,ra,v0
    2168:	00000013 	nop
    216c:	30c00013 	move	a2,v1
    2170:	21000413 	add	a0,a0,1
    2174:	28000813 	li	a1,2
    2178:	f90bb8e3 	bne	a0,a1,2154 <test_10+0x4>
    217c:	efff8837 	lui	s9,0xfff10
    2180:	ef7fc013 	add	s9,s9,-16
    2184:	e0002813 	li	s8,10
    2188:	19ba38e3 	bne	a2,s9,24a4 <fail>

0000218c <test_11>:
    218c:	20000013 	li	a0,0
    2190:	0807f837 	lui	ra,0xff0
    2194:	0843fc13 	add	ra,ra,255
    2198:	107878b7 	lui	v0,0xf0f1
    219c:	10bc3c13 	add	v0,v0,-241
    21a0:	18440333 	or	v1,ra,v0
    21a4:	00000013 	nop
    21a8:	00000013 	nop
    21ac:	30c00013 	move	a2,v1
    21b0:	21000413 	add	a0,a0,1
    21b4:	28000813 	li	a1,2
    21b8:	f90bb0e3 	bne	a0,a1,2190 <test_11+0x4>
    21bc:	e87ff8b7 	lui	s9,0xfff1
    21c0:	ef7ffc13 	add	s9,s9,-1
    21c4:	e0002c13 	li	s8,11
    21c8:	11bbb8e3 	bne	a2,s9,24a4 <fail>

000021cc <test_12>:
    21cc:	20000013 	li	a0,0
    21d0:	0ff80837 	lui	ra,0xff010
    21d4:	087c0013 	add	ra,ra,-256
    21d8:	107878b7 	lui	v0,0xf0f1
    21dc:	10bc3c13 	add	v0,v0,-241
    21e0:	18440333 	or	v1,ra,v0
    21e4:	21000413 	add	a0,a0,1
    21e8:	28000813 	li	a1,2
    21ec:	f90bc8e3 	bne	a0,a1,21d0 <test_12+0x4>
    21f0:	eff88037 	lui	s9,0xff100
    21f4:	ef7c3c13 	add	s9,s9,-241
    21f8:	e0003013 	li	s8,12
    21fc:	10fb50e3 	bne	v1,s9,24a4 <fail>

00002200 <test_13>:
    2200:	20000013 	li	a0,0
    2204:	087f80b7 	lui	ra,0xff01
    2208:	087fc013 	add	ra,ra,-16
    220c:	178787b7 	lui	v0,0xf0f0f
    2210:	1083c013 	add	v0,v0,240
    2214:	00000013 	nop
    2218:	18440333 	or	v1,ra,v0
    221c:	21000413 	add	a0,a0,1
    2220:	28000813 	li	a1,2
    2224:	f90bc0e3 	bne	a0,a1,2204 <test_13+0x4>
    2228:	efff8837 	lui	s9,0xfff10
    222c:	ef7fc013 	add	s9,s9,-16
    2230:	e0003413 	li	s8,13
    2234:	10fae0e3 	bne	v1,s9,24a4 <fail>

00002238 <test_14>:
    2238:	20000013 	li	a0,0
    223c:	0807f837 	lui	ra,0xff0
    2240:	0843fc13 	add	ra,ra,255
    2244:	107878b7 	lui	v0,0xf0f1
    2248:	10bc3c13 	add	v0,v0,-241
    224c:	00000013 	nop
    2250:	00000013 	nop
    2254:	18440333 	or	v1,ra,v0
    2258:	21000413 	add	a0,a0,1
    225c:	28000813 	li	a1,2
    2260:	f90bb8e3 	bne	a0,a1,223c <test_14+0x4>
    2264:	e87ff8b7 	lui	s9,0xfff1
    2268:	ef7ffc13 	add	s9,s9,-1
    226c:	e0003813 	li	s8,14
    2270:	10fa68e3 	bne	v1,s9,24a4 <fail>

00002274 <test_15>:
    2274:	20000013 	li	a0,0
    2278:	0ff80837 	lui	ra,0xff010
    227c:	087c0013 	add	ra,ra,-256
    2280:	00000013 	nop
    2284:	107878b7 	lui	v0,0xf0f1
    2288:	10bc3c13 	add	v0,v0,-241
    228c:	18440333 	or	v1,ra,v0
    2290:	21000413 	add	a0,a0,1
    2294:	28000813 	li	a1,2
    2298:	f90bc0e3 	bne	a0,a1,2278 <test_15+0x4>
    229c:	eff88037 	lui	s9,0xff100
    22a0:	ef7c3c13 	add	s9,s9,-241
    22a4:	e0003c13 	li	s8,15
    22a8:	08fbf8e3 	bne	v1,s9,24a4 <fail>

000022ac <test_16>:
    22ac:	20000013 	li	a0,0
    22b0:	087f80b7 	lui	ra,0xff01
    22b4:	087fc013 	add	ra,ra,-16
    22b8:	00000013 	nop
    22bc:	178787b7 	lui	v0,0xf0f0f
    22c0:	1083c013 	add	v0,v0,240
    22c4:	00000013 	nop
    22c8:	18440333 	or	v1,ra,v0
    22cc:	21000413 	add	a0,a0,1
    22d0:	28000813 	li	a1,2
    22d4:	f90bb8e3 	bne	a0,a1,22b0 <test_16+0x4>
    22d8:	efff8837 	lui	s9,0xfff10
    22dc:	ef7fc013 	add	s9,s9,-16
    22e0:	e0004013 	li	s8,16
    22e4:	08fb80e3 	bne	v1,s9,24a4 <fail>

000022e8 <test_17>:
    22e8:	20000013 	li	a0,0
    22ec:	0807f837 	lui	ra,0xff0
    22f0:	0843fc13 	add	ra,ra,255
    22f4:	00000013 	nop
    22f8:	00000013 	nop
    22fc:	107878b7 	lui	v0,0xf0f1
    2300:	10bc3c13 	add	v0,v0,-241
    2304:	18440333 	or	v1,ra,v0
    2308:	21000413 	add	a0,a0,1
    230c:	28000813 	li	a1,2
    2310:	f90bb8e3 	bne	a0,a1,22ec <test_17+0x4>
    2314:	e87ff8b7 	lui	s9,0xfff1
    2318:	ef7ffc13 	add	s9,s9,-1
    231c:	e0004413 	li	s8,17
    2320:	08fb08e3 	bne	v1,s9,24a4 <fail>

00002324 <test_18>:
    2324:	20000013 	li	a0,0
    2328:	107878b7 	lui	v0,0xf0f1
    232c:	10bc3c13 	add	v0,v0,-241
    2330:	0ff80837 	lui	ra,0xff010
    2334:	087c0013 	add	ra,ra,-256
    2338:	18440333 	or	v1,ra,v0
    233c:	21000413 	add	a0,a0,1
    2340:	28000813 	li	a1,2
    2344:	f90bc8e3 	bne	a0,a1,2328 <test_18+0x4>
    2348:	eff88037 	lui	s9,0xff100
    234c:	ef7c3c13 	add	s9,s9,-241
    2350:	e0004813 	li	s8,18
    2354:	08faa0e3 	bne	v1,s9,24a4 <fail>

00002358 <test_19>:
    2358:	20000013 	li	a0,0
    235c:	178787b7 	lui	v0,0xf0f0f
    2360:	1083c013 	add	v0,v0,240
    2364:	087f80b7 	lui	ra,0xff01
    2368:	087fc013 	add	ra,ra,-16
    236c:	00000013 	nop
    2370:	18440333 	or	v1,ra,v0
    2374:	21000413 	add	a0,a0,1
    2378:	28000813 	li	a1,2
    237c:	f90bc0e3 	bne	a0,a1,235c <test_19+0x4>
    2380:	efff8837 	lui	s9,0xfff10
    2384:	ef7fc013 	add	s9,s9,-16
    2388:	e0004c13 	li	s8,19
    238c:	08fa30e3 	bne	v1,s9,24a4 <fail>

00002390 <test_20>:
    2390:	20000013 	li	a0,0
    2394:	107878b7 	lui	v0,0xf0f1
    2398:	10bc3c13 	add	v0,v0,-241
    239c:	0807f837 	lui	ra,0xff0
    23a0:	0843fc13 	add	ra,ra,255
    23a4:	00000013 	nop
    23a8:	00000013 	nop
    23ac:	18440333 	or	v1,ra,v0
    23b0:	21000413 	add	a0,a0,1
    23b4:	28000813 	li	a1,2
    23b8:	f90bb8e3 	bne	a0,a1,2394 <test_20+0x4>
    23bc:	e87ff8b7 	lui	s9,0xfff1
    23c0:	ef7ffc13 	add	s9,s9,-1
    23c4:	e0005013 	li	s8,20
    23c8:	00fbb8e3 	bne	v1,s9,24a4 <fail>

000023cc <test_21>:
    23cc:	20000013 	li	a0,0
    23d0:	107878b7 	lui	v0,0xf0f1
    23d4:	10bc3c13 	add	v0,v0,-241
    23d8:	00000013 	nop
    23dc:	0ff80837 	lui	ra,0xff010
    23e0:	087c0013 	add	ra,ra,-256
    23e4:	18440333 	or	v1,ra,v0
    23e8:	21000413 	add	a0,a0,1
    23ec:	28000813 	li	a1,2
    23f0:	f90bc0e3 	bne	a0,a1,23d0 <test_21+0x4>
    23f4:	eff88037 	lui	s9,0xff100
    23f8:	ef7c3c13 	add	s9,s9,-241
    23fc:	e0005413 	li	s8,21
    2400:	00fb48e3 	bne	v1,s9,24a4 <fail>

00002404 <test_22>:
    2404:	20000013 	li	a0,0
    2408:	178787b7 	lui	v0,0xf0f0f
    240c:	1083c013 	add	v0,v0,240
    2410:	00000013 	nop
    2414:	087f80b7 	lui	ra,0xff01
    2418:	087fc013 	add	ra,ra,-16
    241c:	00000013 	nop
    2420:	18440333 	or	v1,ra,v0
    2424:	21000413 	add	a0,a0,1
    2428:	28000813 	li	a1,2
    242c:	f90bb8e3 	bne	a0,a1,2408 <test_22+0x4>
    2430:	efff8837 	lui	s9,0xfff10
    2434:	ef7fc013 	add	s9,s9,-16
    2438:	e0005813 	li	s8,22
    243c:	00fad0e3 	bne	v1,s9,24a4 <fail>

00002440 <test_23>:
    2440:	20000013 	li	a0,0
    2444:	107878b7 	lui	v0,0xf0f1
    2448:	10bc3c13 	add	v0,v0,-241
    244c:	00000013 	nop
    2450:	00000013 	nop
    2454:	0807f837 	lui	ra,0xff0
    2458:	0843fc13 	add	ra,ra,255
    245c:	18440333 	or	v1,ra,v0
    2460:	21000413 	add	a0,a0,1
    2464:	28000813 	li	a1,2
    2468:	f90bb8e3 	bne	a0,a1,2444 <test_23+0x4>
    246c:	e87ff8b7 	lui	s9,0xfff1
    2470:	ef7ffc13 	add	s9,s9,-1
    2474:	e0005c13 	li	s8,23
    2478:	00fa58e3 	bne	v1,s9,24a4 <fail>
    247c:	dec00413 	add	s7,s7,1
    2480:	d0000813 	li	s6,2
    2484:	def518e3 	bne	s7,s6,2010 <stats>
    2488:	d0000013 	li	s6,0
    248c:	02b401fb 	mtpcr	zero,s6,cr10
    2490:	00000013 	nop
    2494:	00000013 	nop
    2498:	00000013 	nop
    249c:	00000013 	nop
    24a0:	003820e3 	bne	zero,s8,24b0 <pass>

000024a4 <fail>:
    24a4:	07b801fb 	mtpcr	zero,s8,cr30
    24a8:	00000063 	b	24a8 <fail+0x4>
    24ac:	00000013 	nop

000024b0 <pass>:
    24b0:	08000413 	li	ra,1
    24b4:	078201fb 	mtpcr	zero,ra,cr30
    24b8:	00000063 	b	24b8 <pass+0x8>
    24bc:	00000013 	nop
