
riscv-v2_add:     file format elf32-littleriscv


Disassembly of section .text:

00002000 <_start>:
    2000:	0800017b 	mfpcr	ra,cr0
    2004:	087dff93 	and	ra,ra,-129
    2008:	000201fb 	mtpcr	zero,ra,cr0
    200c:	d8000013 	li	s7,0

00002010 <stats>:
    2010:	02b601fb 	mtpcr	zero,s7,cr10
    2014:	00000013 	nop
    2018:	00000013 	nop
    201c:	00000013 	nop
    2020:	00000013 	nop

00002024 <test_2>:
    2024:	08000013 	li	ra,0
    2028:	10000013 	li	v0,0
    202c:	18440033 	add	v1,ra,v0
    2030:	e8000013 	li	s9,0
    2034:	e0000813 	li	s8,2
    2038:	20fb08e3 	bne	v1,s9,24bc <fail>

0000203c <test_3>:
    203c:	08000413 	li	ra,1
    2040:	10000413 	li	v0,1
    2044:	18440033 	add	v1,ra,v0
    2048:	e8000813 	li	s9,2
    204c:	e0000c13 	li	s8,3
    2050:	20fad8e3 	bne	v1,s9,24bc <fail>

00002054 <test_4>:
    2054:	08000c13 	li	ra,3
    2058:	10001c13 	li	v0,7
    205c:	18440033 	add	v1,ra,v0
    2060:	e8002813 	li	s9,10
    2064:	e0001013 	li	s8,4
    2068:	20faa8e3 	bne	v1,s9,24bc <fail>

0000206c <test_5>:
    206c:	08000013 	li	ra,0
    2070:	17fffc37 	lui	v0,0xffff8
    2074:	18440033 	add	v1,ra,v0
    2078:	effffc37 	lui	s9,0xffff8
    207c:	e0001413 	li	s8,5
    2080:	20fa78e3 	bne	v1,s9,24bc <fail>

00002084 <test_6>:
    2084:	0c000037 	lui	ra,0x80000
    2088:	10000013 	li	v0,0
    208c:	18440033 	add	v1,ra,v0
    2090:	ec000037 	lui	s9,0x80000
    2094:	e0001813 	li	s8,6
    2098:	20fa48e3 	bne	v1,s9,24bc <fail>

0000209c <test_7>:
    209c:	0c000037 	lui	ra,0x80000
    20a0:	17fffc37 	lui	v0,0xffff8
    20a4:	18440033 	add	v1,ra,v0
    20a8:	ebfffc37 	lui	s9,0x7fff8
    20ac:	e0001c13 	li	s8,7
    20b0:	20fa18e3 	bne	v1,s9,24bc <fail>

000020b4 <test_8>:
    20b4:	08000013 	li	ra,0
    20b8:	10000437 	lui	v0,0x8
    20bc:	10bffc13 	add	v0,v0,-1
    20c0:	18440033 	add	v1,ra,v0
    20c4:	e8000437 	lui	s9,0x8
    20c8:	ef7ffc13 	add	s9,s9,-1
    20cc:	e0002013 	li	s8,8
    20d0:	18fbd8e3 	bne	v1,s9,24bc <fail>

000020d4 <test_9>:
    20d4:	0c000037 	lui	ra,0x80000
    20d8:	087ffc13 	add	ra,ra,-1
    20dc:	10000013 	li	v0,0
    20e0:	18440033 	add	v1,ra,v0
    20e4:	ec000037 	lui	s9,0x80000
    20e8:	ef7ffc13 	add	s9,s9,-1
    20ec:	e0002413 	li	s8,9
    20f0:	18fb98e3 	bne	v1,s9,24bc <fail>

000020f4 <test_10>:
    20f4:	0c000037 	lui	ra,0x80000
    20f8:	087ffc13 	add	ra,ra,-1
    20fc:	10000437 	lui	v0,0x8
    2100:	10bffc13 	add	v0,v0,-1
    2104:	18440033 	add	v1,ra,v0
    2108:	ec000437 	lui	s9,0x80008
    210c:	ef7ff813 	add	s9,s9,-2
    2110:	e0002813 	li	s8,10
    2114:	18fb50e3 	bne	v1,s9,24bc <fail>

00002118 <test_11>:
    2118:	0c000037 	lui	ra,0x80000
    211c:	10000437 	lui	v0,0x8
    2120:	10bffc13 	add	v0,v0,-1
    2124:	18440033 	add	v1,ra,v0
    2128:	ec000437 	lui	s9,0x80008
    212c:	ef7ffc13 	add	s9,s9,-1
    2130:	e0002c13 	li	s8,11
    2134:	18fb10e3 	bne	v1,s9,24bc <fail>

00002138 <test_12>:
    2138:	0c000037 	lui	ra,0x80000
    213c:	087ffc13 	add	ra,ra,-1
    2140:	17fffc37 	lui	v0,0xffff8
    2144:	18440033 	add	v1,ra,v0
    2148:	ebfffc37 	lui	s9,0x7fff8
    214c:	ef7ffc13 	add	s9,s9,-1
    2150:	e0003013 	li	s8,12
    2154:	18fad0e3 	bne	v1,s9,24bc <fail>

00002158 <test_13>:
    2158:	08000013 	li	ra,0
    215c:	103ffc13 	li	v0,-1
    2160:	18440033 	add	v1,ra,v0
    2164:	e83ffc13 	li	s9,-1
    2168:	e0003413 	li	s8,13
    216c:	18faa0e3 	bne	v1,s9,24bc <fail>

00002170 <test_14>:
    2170:	083ffc13 	li	ra,-1
    2174:	10000413 	li	v0,1
    2178:	18440033 	add	v1,ra,v0
    217c:	e8000013 	li	s9,0
    2180:	e0003813 	li	s8,14
    2184:	18fa70e3 	bne	v1,s9,24bc <fail>

00002188 <test_15>:
    2188:	083ffc13 	li	ra,-1
    218c:	103ffc13 	li	v0,-1
    2190:	18440033 	add	v1,ra,v0
    2194:	e83ff813 	li	s9,-2
    2198:	e0003c13 	li	s8,15
    219c:	18fa40e3 	bne	v1,s9,24bc <fail>

000021a0 <test_16>:
    21a0:	08003413 	li	ra,13
    21a4:	10002c13 	li	v0,11
    21a8:	08440033 	add	ra,ra,v0
    21ac:	e8006013 	li	s9,24
    21b0:	e0004013 	li	s8,16
    21b4:	187a10e3 	bne	ra,s9,24bc <fail>

000021b8 <test_17>:
    21b8:	08003813 	li	ra,14
    21bc:	10002c13 	li	v0,11
    21c0:	10440033 	add	v0,ra,v0
    21c4:	e8006413 	li	s9,25
    21c8:	e0004413 	li	s8,17
    21cc:	10bbe0e3 	bne	v0,s9,24bc <fail>

000021d0 <test_18>:
    21d0:	08003413 	li	ra,13
    21d4:	08420033 	add	ra,ra,ra
    21d8:	e8006813 	li	s9,26
    21dc:	e0004813 	li	s8,18
    21e0:	107bb8e3 	bne	ra,s9,24bc <fail>

000021e4 <test_19>:
    21e4:	20000013 	li	a0,0
    21e8:	08003413 	li	ra,13
    21ec:	10002c13 	li	v0,11
    21f0:	18440033 	add	v1,ra,v0
    21f4:	30c00013 	move	a2,v1
    21f8:	21000413 	add	a0,a0,1
    21fc:	28000813 	li	a1,2
    2200:	f90bd0e3 	bne	a0,a1,21e8 <test_19+0x4>
    2204:	e8006013 	li	s9,24
    2208:	e0004c13 	li	s8,19
    220c:	11bb60e3 	bne	a2,s9,24bc <fail>

00002210 <test_20>:
    2210:	20000013 	li	a0,0
    2214:	08003813 	li	ra,14
    2218:	10002c13 	li	v0,11
    221c:	18440033 	add	v1,ra,v0
    2220:	00000013 	nop
    2224:	30c00013 	move	a2,v1
    2228:	21000413 	add	a0,a0,1
    222c:	28000813 	li	a1,2
    2230:	f90bc8e3 	bne	a0,a1,2214 <test_20+0x4>
    2234:	e8006413 	li	s9,25
    2238:	e0005013 	li	s8,20
    223c:	11bb00e3 	bne	a2,s9,24bc <fail>

00002240 <test_21>:
    2240:	20000013 	li	a0,0
    2244:	08003c13 	li	ra,15
    2248:	10002c13 	li	v0,11
    224c:	18440033 	add	v1,ra,v0
    2250:	00000013 	nop
    2254:	00000013 	nop
    2258:	30c00013 	move	a2,v1
    225c:	21000413 	add	a0,a0,1
    2260:	28000813 	li	a1,2
    2264:	f90bc0e3 	bne	a0,a1,2244 <test_21+0x4>
    2268:	e8006813 	li	s9,26
    226c:	e0005413 	li	s8,21
    2270:	11ba98e3 	bne	a2,s9,24bc <fail>

00002274 <test_22>:
    2274:	20000013 	li	a0,0
    2278:	08003413 	li	ra,13
    227c:	10002c13 	li	v0,11
    2280:	18440033 	add	v1,ra,v0
    2284:	21000413 	add	a0,a0,1
    2288:	28000813 	li	a1,2
    228c:	f90bd8e3 	bne	a0,a1,2278 <test_22+0x4>
    2290:	e8006013 	li	s9,24
    2294:	e0005813 	li	s8,22
    2298:	10fa48e3 	bne	v1,s9,24bc <fail>

0000229c <test_23>:
    229c:	20000013 	li	a0,0
    22a0:	08003813 	li	ra,14
    22a4:	10002c13 	li	v0,11
    22a8:	00000013 	nop
    22ac:	18440033 	add	v1,ra,v0
    22b0:	21000413 	add	a0,a0,1
    22b4:	28000813 	li	a1,2
    22b8:	f90bd0e3 	bne	a0,a1,22a0 <test_23+0x4>
    22bc:	e8006413 	li	s9,25
    22c0:	e0005c13 	li	s8,23
    22c4:	08fbf0e3 	bne	v1,s9,24bc <fail>

000022c8 <test_24>:
    22c8:	20000013 	li	a0,0
    22cc:	08003c13 	li	ra,15
    22d0:	10002c13 	li	v0,11
    22d4:	00000013 	nop
    22d8:	00000013 	nop
    22dc:	18440033 	add	v1,ra,v0
    22e0:	21000413 	add	a0,a0,1
    22e4:	28000813 	li	a1,2
    22e8:	f90bc8e3 	bne	a0,a1,22cc <test_24+0x4>
    22ec:	e8006813 	li	s9,26
    22f0:	e0006013 	li	s8,24
    22f4:	08fb90e3 	bne	v1,s9,24bc <fail>

000022f8 <test_25>:
    22f8:	20000013 	li	a0,0
    22fc:	08003413 	li	ra,13
    2300:	00000013 	nop
    2304:	10002c13 	li	v0,11
    2308:	18440033 	add	v1,ra,v0
    230c:	21000413 	add	a0,a0,1
    2310:	28000813 	li	a1,2
    2314:	f90bd0e3 	bne	a0,a1,22fc <test_25+0x4>
    2318:	e8006013 	li	s9,24
    231c:	e0006413 	li	s8,25
    2320:	08fb38e3 	bne	v1,s9,24bc <fail>

00002324 <test_26>:
    2324:	20000013 	li	a0,0
    2328:	08003813 	li	ra,14
    232c:	00000013 	nop
    2330:	10002c13 	li	v0,11
    2334:	00000013 	nop
    2338:	18440033 	add	v1,ra,v0
    233c:	21000413 	add	a0,a0,1
    2340:	28000813 	li	a1,2
    2344:	f90bc8e3 	bne	a0,a1,2328 <test_26+0x4>
    2348:	e8006413 	li	s9,25
    234c:	e0006813 	li	s8,26
    2350:	08fad8e3 	bne	v1,s9,24bc <fail>

00002354 <test_27>:
    2354:	20000013 	li	a0,0
    2358:	08003c13 	li	ra,15
    235c:	00000013 	nop
    2360:	00000013 	nop
    2364:	10002c13 	li	v0,11
    2368:	18440033 	add	v1,ra,v0
    236c:	21000413 	add	a0,a0,1
    2370:	28000813 	li	a1,2
    2374:	f90bc8e3 	bne	a0,a1,2358 <test_27+0x4>
    2378:	e8006813 	li	s9,26
    237c:	e0006c13 	li	s8,27
    2380:	08fa78e3 	bne	v1,s9,24bc <fail>

00002384 <test_28>:
    2384:	20000013 	li	a0,0
    2388:	10002c13 	li	v0,11
    238c:	08003413 	li	ra,13
    2390:	18440033 	add	v1,ra,v0
    2394:	21000413 	add	a0,a0,1
    2398:	28000813 	li	a1,2
    239c:	f90bd8e3 	bne	a0,a1,2388 <test_28+0x4>
    23a0:	e8006013 	li	s9,24
    23a4:	e0007013 	li	s8,28
    23a8:	08fa28e3 	bne	v1,s9,24bc <fail>

000023ac <test_29>:
    23ac:	20000013 	li	a0,0
    23b0:	10002c13 	li	v0,11
    23b4:	08003813 	li	ra,14
    23b8:	00000013 	nop
    23bc:	18440033 	add	v1,ra,v0
    23c0:	21000413 	add	a0,a0,1
    23c4:	28000813 	li	a1,2
    23c8:	f90bd0e3 	bne	a0,a1,23b0 <test_29+0x4>
    23cc:	e8006413 	li	s9,25
    23d0:	e0007413 	li	s8,29
    23d4:	00fbd0e3 	bne	v1,s9,24bc <fail>

000023d8 <test_30>:
    23d8:	20000013 	li	a0,0
    23dc:	10002c13 	li	v0,11
    23e0:	08003c13 	li	ra,15
    23e4:	00000013 	nop
    23e8:	00000013 	nop
    23ec:	18440033 	add	v1,ra,v0
    23f0:	21000413 	add	a0,a0,1
    23f4:	28000813 	li	a1,2
    23f8:	f90bc8e3 	bne	a0,a1,23dc <test_30+0x4>
    23fc:	e8006813 	li	s9,26
    2400:	e0007813 	li	s8,30
    2404:	00fb70e3 	bne	v1,s9,24bc <fail>

00002408 <test_31>:
    2408:	20000013 	li	a0,0
    240c:	10002c13 	li	v0,11
    2410:	00000013 	nop
    2414:	08003413 	li	ra,13
    2418:	18440033 	add	v1,ra,v0
    241c:	21000413 	add	a0,a0,1
    2420:	28000813 	li	a1,2
    2424:	f90bd0e3 	bne	a0,a1,240c <test_31+0x4>
    2428:	e8006013 	li	s9,24
    242c:	e0007c13 	li	s8,31
    2430:	00fb18e3 	bne	v1,s9,24bc <fail>

00002434 <test_32>:
    2434:	20000013 	li	a0,0
    2438:	10002c13 	li	v0,11
    243c:	00000013 	nop
    2440:	08003813 	li	ra,14
    2444:	00000013 	nop
    2448:	18440033 	add	v1,ra,v0
    244c:	21000413 	add	a0,a0,1
    2450:	28000813 	li	a1,2
    2454:	f90bc8e3 	bne	a0,a1,2438 <test_32+0x4>
    2458:	e8006413 	li	s9,25
    245c:	e0008013 	li	s8,32
    2460:	00fab8e3 	bne	v1,s9,24bc <fail>

00002464 <test_33>:
    2464:	20000013 	li	a0,0
    2468:	10002c13 	li	v0,11
    246c:	00000013 	nop
    2470:	00000013 	nop
    2474:	08003c13 	li	ra,15
    2478:	18440033 	add	v1,ra,v0
    247c:	21000413 	add	a0,a0,1
    2480:	28000813 	li	a1,2
    2484:	f90bc8e3 	bne	a0,a1,2468 <test_33+0x4>
    2488:	e8006813 	li	s9,26
    248c:	e0008413 	li	s8,33
    2490:	00fa58e3 	bne	v1,s9,24bc <fail>
    2494:	dec00413 	add	s7,s7,1
    2498:	d0000813 	li	s6,2
    249c:	def4e8e3 	bne	s7,s6,2010 <stats>
    24a0:	d0000013 	li	s6,0
    24a4:	02b401fb 	mtpcr	zero,s6,cr10
    24a8:	00000013 	nop
    24ac:	00000013 	nop
    24b0:	00000013 	nop
    24b4:	00000013 	nop
    24b8:	003820e3 	bne	zero,s8,24c8 <pass>

000024bc <fail>:
    24bc:	07b801fb 	mtpcr	zero,s8,cr30
    24c0:	00000063 	b	24c0 <fail+0x4>
    24c4:	00000013 	nop

000024c8 <pass>:
    24c8:	08000413 	li	ra,1
    24cc:	078201fb 	mtpcr	zero,ra,cr30
    24d0:	00000063 	b	24d0 <pass+0x8>
    24d4:	00000013 	nop
    24d8:	00000013 	nop
    24dc:	00000013 	nop
