
riscv-v2_sll:     file format elf32-littleriscv


Disassembly of section .text:

00002000 <_start>:
    2000:	0800017b 	mfpcr	ra,cr0
    2004:	087dff93 	and	ra,ra,-129
    2008:	000201fb 	mtpcr	zero,ra,cr0
    200c:	d8000013 	li	s7,0

00002010 <stats>:
    2010:	02b601fb 	mtpcr	zero,s7,cr10
    2014:	00000013 	nop
    2018:	00000013 	nop
    201c:	00000013 	nop
    2020:	00000013 	nop

00002024 <test_2>:
    2024:	08000413 	li	ra,1
    2028:	10000013 	li	v0,0
    202c:	184400b3 	sll	v1,ra,v0
    2030:	e8000413 	li	s9,1
    2034:	e0000813 	li	s8,2
    2038:	28fa50e3 	bne	v1,s9,2560 <fail>

0000203c <test_3>:
    203c:	08000413 	li	ra,1
    2040:	10000413 	li	v0,1
    2044:	184400b3 	sll	v1,ra,v0
    2048:	e8000813 	li	s9,2
    204c:	e0000c13 	li	s8,3
    2050:	28fa20e3 	bne	v1,s9,2560 <fail>

00002054 <test_4>:
    2054:	08000413 	li	ra,1
    2058:	10001c13 	li	v0,7
    205c:	184400b3 	sll	v1,ra,v0
    2060:	e8020013 	li	s9,128
    2064:	e0001013 	li	s8,4
    2068:	20fbf0e3 	bne	v1,s9,2560 <fail>

0000206c <test_5>:
    206c:	08000413 	li	ra,1
    2070:	10003813 	li	v0,14
    2074:	184400b3 	sll	v1,ra,v0
    2078:	e8000237 	lui	s9,0x4
    207c:	e0001413 	li	s8,5
    2080:	20fbc0e3 	bne	v1,s9,2560 <fail>

00002084 <test_6>:
    2084:	08000413 	li	ra,1
    2088:	10007c13 	li	v0,31
    208c:	184400b3 	sll	v1,ra,v0
    2090:	ec000037 	lui	s9,0x80000
    2094:	e0001813 	li	s8,6
    2098:	20fb90e3 	bne	v1,s9,2560 <fail>

0000209c <test_7>:
    209c:	083ffc13 	li	ra,-1
    20a0:	10000013 	li	v0,0
    20a4:	184400b3 	sll	v1,ra,v0
    20a8:	e83ffc13 	li	s9,-1
    20ac:	e0001c13 	li	s8,7
    20b0:	20fb60e3 	bne	v1,s9,2560 <fail>

000020b4 <test_8>:
    20b4:	083ffc13 	li	ra,-1
    20b8:	10000413 	li	v0,1
    20bc:	184400b3 	sll	v1,ra,v0
    20c0:	e83ff813 	li	s9,-2
    20c4:	e0002013 	li	s8,8
    20c8:	20fb30e3 	bne	v1,s9,2560 <fail>

000020cc <test_9>:
    20cc:	083ffc13 	li	ra,-1
    20d0:	10001c13 	li	v0,7
    20d4:	184400b3 	sll	v1,ra,v0
    20d8:	e83e0013 	li	s9,-128
    20dc:	e0002413 	li	s8,9
    20e0:	20fb00e3 	bne	v1,s9,2560 <fail>

000020e4 <test_10>:
    20e4:	083ffc13 	li	ra,-1
    20e8:	10003813 	li	v0,14
    20ec:	184400b3 	sll	v1,ra,v0
    20f0:	effffe37 	lui	s9,0xffffc
    20f4:	e0002813 	li	s8,10
    20f8:	20fad0e3 	bne	v1,s9,2560 <fail>

000020fc <test_11>:
    20fc:	083ffc13 	li	ra,-1
    2100:	10007c13 	li	v0,31
    2104:	184400b3 	sll	v1,ra,v0
    2108:	ec000037 	lui	s9,0x80000
    210c:	e0002c13 	li	s8,11
    2110:	20faa0e3 	bne	v1,s9,2560 <fail>

00002114 <test_12>:
    2114:	09090937 	lui	ra,0x21212
    2118:	08448413 	add	ra,ra,289
    211c:	10000013 	li	v0,0
    2120:	184400b3 	sll	v1,ra,v0
    2124:	e9090937 	lui	s9,0x21212
    2128:	ef448413 	add	s9,s9,289
    212c:	e0003013 	li	s8,12
    2130:	20fa60e3 	bne	v1,s9,2560 <fail>

00002134 <test_13>:
    2134:	09090937 	lui	ra,0x21212
    2138:	08448413 	add	ra,ra,289
    213c:	10000413 	li	v0,1
    2140:	184400b3 	sll	v1,ra,v0
    2144:	ea121237 	lui	s9,0x42424
    2148:	ef490813 	add	s9,s9,578
    214c:	e0003413 	li	s8,13
    2150:	20fa20e3 	bne	v1,s9,2560 <fail>

00002154 <test_14>:
    2154:	09090937 	lui	ra,0x21212
    2158:	08448413 	add	ra,ra,289
    215c:	10001c13 	li	v0,7
    2160:	184400b3 	sll	v1,ra,v0
    2164:	ec8484b7 	lui	s9,0x90909
    2168:	ef420013 	add	s9,s9,128
    216c:	e0003813 	li	s8,14
    2170:	18fbe0e3 	bne	v1,s9,2560 <fail>

00002174 <test_15>:
    2174:	09090937 	lui	ra,0x21212
    2178:	08448413 	add	ra,ra,289
    217c:	10003813 	li	v0,14
    2180:	184400b3 	sll	v1,ra,v0
    2184:	ea424237 	lui	s9,0x48484
    2188:	e0003c13 	li	s8,15
    218c:	18fba8e3 	bne	v1,s9,2560 <fail>

00002190 <test_16>:
    2190:	09090937 	lui	ra,0x21212
    2194:	08448413 	add	ra,ra,289
    2198:	10007c13 	li	v0,31
    219c:	184400b3 	sll	v1,ra,v0
    21a0:	ec000037 	lui	s9,0x80000
    21a4:	e0004013 	li	s8,16
    21a8:	18fb70e3 	bne	v1,s9,2560 <fail>

000021ac <test_17>:
    21ac:	09090937 	lui	ra,0x21212
    21b0:	08448413 	add	ra,ra,289
    21b4:	103f8013 	li	v0,-32
    21b8:	184400b3 	sll	v1,ra,v0
    21bc:	e9090937 	lui	s9,0x21212
    21c0:	ef448413 	add	s9,s9,289
    21c4:	e0004413 	li	s8,17
    21c8:	18fb30e3 	bne	v1,s9,2560 <fail>

000021cc <test_18>:
    21cc:	09090937 	lui	ra,0x21212
    21d0:	08448413 	add	ra,ra,289
    21d4:	103f8413 	li	v0,-31
    21d8:	184400b3 	sll	v1,ra,v0
    21dc:	ea121237 	lui	s9,0x42424
    21e0:	ef490813 	add	s9,s9,578
    21e4:	e0004813 	li	s8,18
    21e8:	18faf0e3 	bne	v1,s9,2560 <fail>

000021ec <test_19>:
    21ec:	09090937 	lui	ra,0x21212
    21f0:	08448413 	add	ra,ra,289
    21f4:	103f9c13 	li	v0,-25
    21f8:	184400b3 	sll	v1,ra,v0
    21fc:	ec8484b7 	lui	s9,0x90909
    2200:	ef420013 	add	s9,s9,128
    2204:	e0004c13 	li	s8,19
    2208:	18fab0e3 	bne	v1,s9,2560 <fail>

0000220c <test_20>:
    220c:	09090937 	lui	ra,0x21212
    2210:	08448413 	add	ra,ra,289
    2214:	103fb813 	li	v0,-18
    2218:	184400b3 	sll	v1,ra,v0
    221c:	ea424237 	lui	s9,0x48484
    2220:	e0005013 	li	s8,20
    2224:	18fa78e3 	bne	v1,s9,2560 <fail>

00002228 <test_21>:
    2228:	09090937 	lui	ra,0x21212
    222c:	08448413 	add	ra,ra,289
    2230:	103ffc13 	li	v0,-1
    2234:	184400b3 	sll	v1,ra,v0
    2238:	ec000037 	lui	s9,0x80000
    223c:	e0005413 	li	s8,21
    2240:	18fa40e3 	bne	v1,s9,2560 <fail>

00002244 <test_22>:
    2244:	08000413 	li	ra,1
    2248:	10001c13 	li	v0,7
    224c:	084400b3 	sll	ra,ra,v0
    2250:	e8020013 	li	s9,128
    2254:	e0005813 	li	s8,22
    2258:	187a10e3 	bne	ra,s9,2560 <fail>

0000225c <test_23>:
    225c:	08000413 	li	ra,1
    2260:	10003813 	li	v0,14
    2264:	104400b3 	sll	v0,ra,v0
    2268:	e8000237 	lui	s9,0x4
    226c:	e0005c13 	li	s8,23
    2270:	10bbe0e3 	bne	v0,s9,2560 <fail>

00002274 <test_24>:
    2274:	08000c13 	li	ra,3
    2278:	084200b3 	sll	ra,ra,ra
    227c:	e8006013 	li	s9,24
    2280:	e0006013 	li	s8,24
    2284:	107bb8e3 	bne	ra,s9,2560 <fail>

00002288 <test_25>:
    2288:	20000013 	li	a0,0
    228c:	08000413 	li	ra,1
    2290:	10001c13 	li	v0,7
    2294:	184400b3 	sll	v1,ra,v0
    2298:	30c00013 	move	a2,v1
    229c:	21000413 	add	a0,a0,1
    22a0:	28000813 	li	a1,2
    22a4:	f90bd0e3 	bne	a0,a1,228c <test_25+0x4>
    22a8:	e8020013 	li	s9,128
    22ac:	e0006413 	li	s8,25
    22b0:	11bb60e3 	bne	a2,s9,2560 <fail>

000022b4 <test_26>:
    22b4:	20000013 	li	a0,0
    22b8:	08000413 	li	ra,1
    22bc:	10003813 	li	v0,14
    22c0:	184400b3 	sll	v1,ra,v0
    22c4:	00000013 	nop
    22c8:	30c00013 	move	a2,v1
    22cc:	21000413 	add	a0,a0,1
    22d0:	28000813 	li	a1,2
    22d4:	f90bc8e3 	bne	a0,a1,22b8 <test_26+0x4>
    22d8:	e8000237 	lui	s9,0x4
    22dc:	e0006813 	li	s8,26
    22e0:	11bb00e3 	bne	a2,s9,2560 <fail>

000022e4 <test_27>:
    22e4:	20000013 	li	a0,0
    22e8:	08000413 	li	ra,1
    22ec:	10007c13 	li	v0,31
    22f0:	184400b3 	sll	v1,ra,v0
    22f4:	00000013 	nop
    22f8:	00000013 	nop
    22fc:	30c00013 	move	a2,v1
    2300:	21000413 	add	a0,a0,1
    2304:	28000813 	li	a1,2
    2308:	f90bc0e3 	bne	a0,a1,22e8 <test_27+0x4>
    230c:	ec000037 	lui	s9,0x80000
    2310:	e0006c13 	li	s8,27
    2314:	11ba98e3 	bne	a2,s9,2560 <fail>

00002318 <test_28>:
    2318:	20000013 	li	a0,0
    231c:	08000413 	li	ra,1
    2320:	10001c13 	li	v0,7
    2324:	184400b3 	sll	v1,ra,v0
    2328:	21000413 	add	a0,a0,1
    232c:	28000813 	li	a1,2
    2330:	f90bd8e3 	bne	a0,a1,231c <test_28+0x4>
    2334:	e8020013 	li	s9,128
    2338:	e0007013 	li	s8,28
    233c:	10fa48e3 	bne	v1,s9,2560 <fail>

00002340 <test_29>:
    2340:	20000013 	li	a0,0
    2344:	08000413 	li	ra,1
    2348:	10003813 	li	v0,14
    234c:	00000013 	nop
    2350:	184400b3 	sll	v1,ra,v0
    2354:	21000413 	add	a0,a0,1
    2358:	28000813 	li	a1,2
    235c:	f90bd0e3 	bne	a0,a1,2344 <test_29+0x4>
    2360:	e8000237 	lui	s9,0x4
    2364:	e0007413 	li	s8,29
    2368:	08fbf0e3 	bne	v1,s9,2560 <fail>

0000236c <test_30>:
    236c:	20000013 	li	a0,0
    2370:	08000413 	li	ra,1
    2374:	10007c13 	li	v0,31
    2378:	00000013 	nop
    237c:	00000013 	nop
    2380:	184400b3 	sll	v1,ra,v0
    2384:	21000413 	add	a0,a0,1
    2388:	28000813 	li	a1,2
    238c:	f90bc8e3 	bne	a0,a1,2370 <test_30+0x4>
    2390:	ec000037 	lui	s9,0x80000
    2394:	e0007813 	li	s8,30
    2398:	08fb90e3 	bne	v1,s9,2560 <fail>

0000239c <test_31>:
    239c:	20000013 	li	a0,0
    23a0:	08000413 	li	ra,1
    23a4:	00000013 	nop
    23a8:	10001c13 	li	v0,7
    23ac:	184400b3 	sll	v1,ra,v0
    23b0:	21000413 	add	a0,a0,1
    23b4:	28000813 	li	a1,2
    23b8:	f90bd0e3 	bne	a0,a1,23a0 <test_31+0x4>
    23bc:	e8020013 	li	s9,128
    23c0:	e0007c13 	li	s8,31
    23c4:	08fb38e3 	bne	v1,s9,2560 <fail>

000023c8 <test_32>:
    23c8:	20000013 	li	a0,0
    23cc:	08000413 	li	ra,1
    23d0:	00000013 	nop
    23d4:	10003813 	li	v0,14
    23d8:	00000013 	nop
    23dc:	184400b3 	sll	v1,ra,v0
    23e0:	21000413 	add	a0,a0,1
    23e4:	28000813 	li	a1,2
    23e8:	f90bc8e3 	bne	a0,a1,23cc <test_32+0x4>
    23ec:	e8000237 	lui	s9,0x4
    23f0:	e0008013 	li	s8,32
    23f4:	08fad8e3 	bne	v1,s9,2560 <fail>

000023f8 <test_33>:
    23f8:	20000013 	li	a0,0
    23fc:	08000413 	li	ra,1
    2400:	00000013 	nop
    2404:	00000013 	nop
    2408:	10007c13 	li	v0,31
    240c:	184400b3 	sll	v1,ra,v0
    2410:	21000413 	add	a0,a0,1
    2414:	28000813 	li	a1,2
    2418:	f90bc8e3 	bne	a0,a1,23fc <test_33+0x4>
    241c:	ec000037 	lui	s9,0x80000
    2420:	e0008413 	li	s8,33
    2424:	08fa78e3 	bne	v1,s9,2560 <fail>

00002428 <test_34>:
    2428:	20000013 	li	a0,0
    242c:	10001c13 	li	v0,7
    2430:	08000413 	li	ra,1
    2434:	184400b3 	sll	v1,ra,v0
    2438:	21000413 	add	a0,a0,1
    243c:	28000813 	li	a1,2
    2440:	f90bd8e3 	bne	a0,a1,242c <test_34+0x4>
    2444:	e8020013 	li	s9,128
    2448:	e0008813 	li	s8,34
    244c:	08fa28e3 	bne	v1,s9,2560 <fail>

00002450 <test_35>:
    2450:	20000013 	li	a0,0
    2454:	10003813 	li	v0,14
    2458:	08000413 	li	ra,1
    245c:	00000013 	nop
    2460:	184400b3 	sll	v1,ra,v0
    2464:	21000413 	add	a0,a0,1
    2468:	28000813 	li	a1,2
    246c:	f90bd0e3 	bne	a0,a1,2454 <test_35+0x4>
    2470:	e8000237 	lui	s9,0x4
    2474:	e0008c13 	li	s8,35
    2478:	00fbd0e3 	bne	v1,s9,2560 <fail>

0000247c <test_36>:
    247c:	20000013 	li	a0,0
    2480:	10007c13 	li	v0,31
    2484:	08000413 	li	ra,1
    2488:	00000013 	nop
    248c:	00000013 	nop
    2490:	184400b3 	sll	v1,ra,v0
    2494:	21000413 	add	a0,a0,1
    2498:	28000813 	li	a1,2
    249c:	f90bc8e3 	bne	a0,a1,2480 <test_36+0x4>
    24a0:	ec000037 	lui	s9,0x80000
    24a4:	e0009013 	li	s8,36
    24a8:	00fb70e3 	bne	v1,s9,2560 <fail>

000024ac <test_37>:
    24ac:	20000013 	li	a0,0
    24b0:	10001c13 	li	v0,7
    24b4:	00000013 	nop
    24b8:	08000413 	li	ra,1
    24bc:	184400b3 	sll	v1,ra,v0
    24c0:	21000413 	add	a0,a0,1
    24c4:	28000813 	li	a1,2
    24c8:	f90bd0e3 	bne	a0,a1,24b0 <test_37+0x4>
    24cc:	e8020013 	li	s9,128
    24d0:	e0009413 	li	s8,37
    24d4:	00fb18e3 	bne	v1,s9,2560 <fail>

000024d8 <test_38>:
    24d8:	20000013 	li	a0,0
    24dc:	10003813 	li	v0,14
    24e0:	00000013 	nop
    24e4:	08000413 	li	ra,1
    24e8:	00000013 	nop
    24ec:	184400b3 	sll	v1,ra,v0
    24f0:	21000413 	add	a0,a0,1
    24f4:	28000813 	li	a1,2
    24f8:	f90bc8e3 	bne	a0,a1,24dc <test_38+0x4>
    24fc:	e8000237 	lui	s9,0x4
    2500:	e0009813 	li	s8,38
    2504:	00fab8e3 	bne	v1,s9,2560 <fail>

00002508 <test_39>:
    2508:	20000013 	li	a0,0
    250c:	10007c13 	li	v0,31
    2510:	00000013 	nop
    2514:	00000013 	nop
    2518:	08000413 	li	ra,1
    251c:	184400b3 	sll	v1,ra,v0
    2520:	21000413 	add	a0,a0,1
    2524:	28000813 	li	a1,2
    2528:	f90bc8e3 	bne	a0,a1,250c <test_39+0x4>
    252c:	ec000037 	lui	s9,0x80000
    2530:	e0009c13 	li	s8,39
    2534:	00fa58e3 	bne	v1,s9,2560 <fail>
    2538:	dec00413 	add	s7,s7,1
    253c:	d0000813 	li	s6,2
    2540:	d6f5a0e3 	bne	s7,s6,2010 <stats>
    2544:	d0000013 	li	s6,0
    2548:	02b401fb 	mtpcr	zero,s6,cr10
    254c:	00000013 	nop
    2550:	00000013 	nop
    2554:	00000013 	nop
    2558:	00000013 	nop
    255c:	003820e3 	bne	zero,s8,256c <pass>

00002560 <fail>:
    2560:	07b801fb 	mtpcr	zero,s8,cr30
    2564:	00000063 	b	2564 <fail+0x4>
    2568:	00000013 	nop

0000256c <pass>:
    256c:	08000413 	li	ra,1
    2570:	078201fb 	mtpcr	zero,ra,cr30
    2574:	00000063 	b	2574 <pass+0x8>
    2578:	00000013 	nop
    257c:	00000013 	nop
