
riscv-v2_sub:     file format elf32-littleriscv


Disassembly of section .text:

00002000 <_start>:
    2000:	0800017b 	mfpcr	ra,cr0
    2004:	087dff93 	and	ra,ra,-129
    2008:	000201fb 	mtpcr	zero,ra,cr0
    200c:	d8000013 	li	s7,0

00002010 <stats>:
    2010:	02b601fb 	mtpcr	zero,s7,cr10
    2014:	00000013 	nop
    2018:	00000013 	nop
    201c:	00000013 	nop
    2020:	00000013 	nop

00002024 <test_2>:
    2024:	08000013 	li	ra,0
    2028:	10000013 	li	v0,0
    202c:	18450033 	sub	v1,ra,v0
    2030:	e8000013 	li	s9,0
    2034:	e0000813 	li	s8,2
    2038:	20fb00e3 	bne	v1,s9,24b8 <fail>

0000203c <test_3>:
    203c:	08000413 	li	ra,1
    2040:	10000413 	li	v0,1
    2044:	18450033 	sub	v1,ra,v0
    2048:	e8000013 	li	s9,0
    204c:	e0000c13 	li	s8,3
    2050:	20fad0e3 	bne	v1,s9,24b8 <fail>

00002054 <test_4>:
    2054:	08000c13 	li	ra,3
    2058:	10001c13 	li	v0,7
    205c:	18450033 	sub	v1,ra,v0
    2060:	e83ff013 	li	s9,-4
    2064:	e0001013 	li	s8,4
    2068:	20faa0e3 	bne	v1,s9,24b8 <fail>

0000206c <test_5>:
    206c:	08000013 	li	ra,0
    2070:	17fffc37 	lui	v0,0xffff8
    2074:	18450033 	sub	v1,ra,v0
    2078:	e8000437 	lui	s9,0x8
    207c:	e0001413 	li	s8,5
    2080:	20fa70e3 	bne	v1,s9,24b8 <fail>

00002084 <test_6>:
    2084:	0c000037 	lui	ra,0x80000
    2088:	10000013 	li	v0,0
    208c:	18450033 	sub	v1,ra,v0
    2090:	ec000037 	lui	s9,0x80000
    2094:	e0001813 	li	s8,6
    2098:	20fa40e3 	bne	v1,s9,24b8 <fail>

0000209c <test_7>:
    209c:	0c000037 	lui	ra,0x80000
    20a0:	17fffc37 	lui	v0,0xffff8
    20a4:	18450033 	sub	v1,ra,v0
    20a8:	ec000437 	lui	s9,0x80008
    20ac:	e0001c13 	li	s8,7
    20b0:	20fa10e3 	bne	v1,s9,24b8 <fail>

000020b4 <test_8>:
    20b4:	08000013 	li	ra,0
    20b8:	10000437 	lui	v0,0x8
    20bc:	10bffc13 	add	v0,v0,-1
    20c0:	18450033 	sub	v1,ra,v0
    20c4:	effffc37 	lui	s9,0xffff8
    20c8:	ef400413 	add	s9,s9,1
    20cc:	e0002013 	li	s8,8
    20d0:	18fbd0e3 	bne	v1,s9,24b8 <fail>

000020d4 <test_9>:
    20d4:	0c000037 	lui	ra,0x80000
    20d8:	087ffc13 	add	ra,ra,-1
    20dc:	10000013 	li	v0,0
    20e0:	18450033 	sub	v1,ra,v0
    20e4:	ec000037 	lui	s9,0x80000
    20e8:	ef7ffc13 	add	s9,s9,-1
    20ec:	e0002413 	li	s8,9
    20f0:	18fb90e3 	bne	v1,s9,24b8 <fail>

000020f4 <test_10>:
    20f4:	0c000037 	lui	ra,0x80000
    20f8:	087ffc13 	add	ra,ra,-1
    20fc:	10000437 	lui	v0,0x8
    2100:	10bffc13 	add	v0,v0,-1
    2104:	18450033 	sub	v1,ra,v0
    2108:	ebfffc37 	lui	s9,0x7fff8
    210c:	e0002813 	li	s8,10
    2110:	18fb50e3 	bne	v1,s9,24b8 <fail>

00002114 <test_11>:
    2114:	0c000037 	lui	ra,0x80000
    2118:	10000437 	lui	v0,0x8
    211c:	10bffc13 	add	v0,v0,-1
    2120:	18450033 	sub	v1,ra,v0
    2124:	ebfffc37 	lui	s9,0x7fff8
    2128:	ef400413 	add	s9,s9,1
    212c:	e0002c13 	li	s8,11
    2130:	18fb10e3 	bne	v1,s9,24b8 <fail>

00002134 <test_12>:
    2134:	0c000037 	lui	ra,0x80000
    2138:	087ffc13 	add	ra,ra,-1
    213c:	17fffc37 	lui	v0,0xffff8
    2140:	18450033 	sub	v1,ra,v0
    2144:	ec000437 	lui	s9,0x80008
    2148:	ef7ffc13 	add	s9,s9,-1
    214c:	e0003013 	li	s8,12
    2150:	18fad0e3 	bne	v1,s9,24b8 <fail>

00002154 <test_13>:
    2154:	08000013 	li	ra,0
    2158:	103ffc13 	li	v0,-1
    215c:	18450033 	sub	v1,ra,v0
    2160:	e8000413 	li	s9,1
    2164:	e0003413 	li	s8,13
    2168:	18faa0e3 	bne	v1,s9,24b8 <fail>

0000216c <test_14>:
    216c:	083ffc13 	li	ra,-1
    2170:	10000413 	li	v0,1
    2174:	18450033 	sub	v1,ra,v0
    2178:	e83ff813 	li	s9,-2
    217c:	e0003813 	li	s8,14
    2180:	18fa70e3 	bne	v1,s9,24b8 <fail>

00002184 <test_15>:
    2184:	083ffc13 	li	ra,-1
    2188:	103ffc13 	li	v0,-1
    218c:	18450033 	sub	v1,ra,v0
    2190:	e8000013 	li	s9,0
    2194:	e0003c13 	li	s8,15
    2198:	18fa40e3 	bne	v1,s9,24b8 <fail>

0000219c <test_16>:
    219c:	08003413 	li	ra,13
    21a0:	10002c13 	li	v0,11
    21a4:	08450033 	sub	ra,ra,v0
    21a8:	e8000813 	li	s9,2
    21ac:	e0004013 	li	s8,16
    21b0:	187a10e3 	bne	ra,s9,24b8 <fail>

000021b4 <test_17>:
    21b4:	08003813 	li	ra,14
    21b8:	10002c13 	li	v0,11
    21bc:	10450033 	sub	v0,ra,v0
    21c0:	e8000c13 	li	s9,3
    21c4:	e0004413 	li	s8,17
    21c8:	10bbe0e3 	bne	v0,s9,24b8 <fail>

000021cc <test_18>:
    21cc:	08003413 	li	ra,13
    21d0:	08430033 	sub	ra,ra,ra
    21d4:	e8000013 	li	s9,0
    21d8:	e0004813 	li	s8,18
    21dc:	107bb8e3 	bne	ra,s9,24b8 <fail>

000021e0 <test_19>:
    21e0:	20000013 	li	a0,0
    21e4:	08003413 	li	ra,13
    21e8:	10002c13 	li	v0,11
    21ec:	18450033 	sub	v1,ra,v0
    21f0:	30c00013 	move	a2,v1
    21f4:	21000413 	add	a0,a0,1
    21f8:	28000813 	li	a1,2
    21fc:	f90bd0e3 	bne	a0,a1,21e4 <test_19+0x4>
    2200:	e8000813 	li	s9,2
    2204:	e0004c13 	li	s8,19
    2208:	11bb60e3 	bne	a2,s9,24b8 <fail>

0000220c <test_20>:
    220c:	20000013 	li	a0,0
    2210:	08003813 	li	ra,14
    2214:	10002c13 	li	v0,11
    2218:	18450033 	sub	v1,ra,v0
    221c:	00000013 	nop
    2220:	30c00013 	move	a2,v1
    2224:	21000413 	add	a0,a0,1
    2228:	28000813 	li	a1,2
    222c:	f90bc8e3 	bne	a0,a1,2210 <test_20+0x4>
    2230:	e8000c13 	li	s9,3
    2234:	e0005013 	li	s8,20
    2238:	11bb00e3 	bne	a2,s9,24b8 <fail>

0000223c <test_21>:
    223c:	20000013 	li	a0,0
    2240:	08003c13 	li	ra,15
    2244:	10002c13 	li	v0,11
    2248:	18450033 	sub	v1,ra,v0
    224c:	00000013 	nop
    2250:	00000013 	nop
    2254:	30c00013 	move	a2,v1
    2258:	21000413 	add	a0,a0,1
    225c:	28000813 	li	a1,2
    2260:	f90bc0e3 	bne	a0,a1,2240 <test_21+0x4>
    2264:	e8001013 	li	s9,4
    2268:	e0005413 	li	s8,21
    226c:	11ba98e3 	bne	a2,s9,24b8 <fail>

00002270 <test_22>:
    2270:	20000013 	li	a0,0
    2274:	08003413 	li	ra,13
    2278:	10002c13 	li	v0,11
    227c:	18450033 	sub	v1,ra,v0
    2280:	21000413 	add	a0,a0,1
    2284:	28000813 	li	a1,2
    2288:	f90bd8e3 	bne	a0,a1,2274 <test_22+0x4>
    228c:	e8000813 	li	s9,2
    2290:	e0005813 	li	s8,22
    2294:	10fa48e3 	bne	v1,s9,24b8 <fail>

00002298 <test_23>:
    2298:	20000013 	li	a0,0
    229c:	08003813 	li	ra,14
    22a0:	10002c13 	li	v0,11
    22a4:	00000013 	nop
    22a8:	18450033 	sub	v1,ra,v0
    22ac:	21000413 	add	a0,a0,1
    22b0:	28000813 	li	a1,2
    22b4:	f90bd0e3 	bne	a0,a1,229c <test_23+0x4>
    22b8:	e8000c13 	li	s9,3
    22bc:	e0005c13 	li	s8,23
    22c0:	08fbf0e3 	bne	v1,s9,24b8 <fail>

000022c4 <test_24>:
    22c4:	20000013 	li	a0,0
    22c8:	08003c13 	li	ra,15
    22cc:	10002c13 	li	v0,11
    22d0:	00000013 	nop
    22d4:	00000013 	nop
    22d8:	18450033 	sub	v1,ra,v0
    22dc:	21000413 	add	a0,a0,1
    22e0:	28000813 	li	a1,2
    22e4:	f90bc8e3 	bne	a0,a1,22c8 <test_24+0x4>
    22e8:	e8001013 	li	s9,4
    22ec:	e0006013 	li	s8,24
    22f0:	08fb90e3 	bne	v1,s9,24b8 <fail>

000022f4 <test_25>:
    22f4:	20000013 	li	a0,0
    22f8:	08003413 	li	ra,13
    22fc:	00000013 	nop
    2300:	10002c13 	li	v0,11
    2304:	18450033 	sub	v1,ra,v0
    2308:	21000413 	add	a0,a0,1
    230c:	28000813 	li	a1,2
    2310:	f90bd0e3 	bne	a0,a1,22f8 <test_25+0x4>
    2314:	e8000813 	li	s9,2
    2318:	e0006413 	li	s8,25
    231c:	08fb38e3 	bne	v1,s9,24b8 <fail>

00002320 <test_26>:
    2320:	20000013 	li	a0,0
    2324:	08003813 	li	ra,14
    2328:	00000013 	nop
    232c:	10002c13 	li	v0,11
    2330:	00000013 	nop
    2334:	18450033 	sub	v1,ra,v0
    2338:	21000413 	add	a0,a0,1
    233c:	28000813 	li	a1,2
    2340:	f90bc8e3 	bne	a0,a1,2324 <test_26+0x4>
    2344:	e8000c13 	li	s9,3
    2348:	e0006813 	li	s8,26
    234c:	08fad8e3 	bne	v1,s9,24b8 <fail>

00002350 <test_27>:
    2350:	20000013 	li	a0,0
    2354:	08003c13 	li	ra,15
    2358:	00000013 	nop
    235c:	00000013 	nop
    2360:	10002c13 	li	v0,11
    2364:	18450033 	sub	v1,ra,v0
    2368:	21000413 	add	a0,a0,1
    236c:	28000813 	li	a1,2
    2370:	f90bc8e3 	bne	a0,a1,2354 <test_27+0x4>
    2374:	e8001013 	li	s9,4
    2378:	e0006c13 	li	s8,27
    237c:	08fa78e3 	bne	v1,s9,24b8 <fail>

00002380 <test_28>:
    2380:	20000013 	li	a0,0
    2384:	10002c13 	li	v0,11
    2388:	08003413 	li	ra,13
    238c:	18450033 	sub	v1,ra,v0
    2390:	21000413 	add	a0,a0,1
    2394:	28000813 	li	a1,2
    2398:	f90bd8e3 	bne	a0,a1,2384 <test_28+0x4>
    239c:	e8000813 	li	s9,2
    23a0:	e0007013 	li	s8,28
    23a4:	08fa28e3 	bne	v1,s9,24b8 <fail>

000023a8 <test_29>:
    23a8:	20000013 	li	a0,0
    23ac:	10002c13 	li	v0,11
    23b0:	08003813 	li	ra,14
    23b4:	00000013 	nop
    23b8:	18450033 	sub	v1,ra,v0
    23bc:	21000413 	add	a0,a0,1
    23c0:	28000813 	li	a1,2
    23c4:	f90bd0e3 	bne	a0,a1,23ac <test_29+0x4>
    23c8:	e8000c13 	li	s9,3
    23cc:	e0007413 	li	s8,29
    23d0:	00fbd0e3 	bne	v1,s9,24b8 <fail>

000023d4 <test_30>:
    23d4:	20000013 	li	a0,0
    23d8:	10002c13 	li	v0,11
    23dc:	08003c13 	li	ra,15
    23e0:	00000013 	nop
    23e4:	00000013 	nop
    23e8:	18450033 	sub	v1,ra,v0
    23ec:	21000413 	add	a0,a0,1
    23f0:	28000813 	li	a1,2
    23f4:	f90bc8e3 	bne	a0,a1,23d8 <test_30+0x4>
    23f8:	e8001013 	li	s9,4
    23fc:	e0007813 	li	s8,30
    2400:	00fb70e3 	bne	v1,s9,24b8 <fail>

00002404 <test_31>:
    2404:	20000013 	li	a0,0
    2408:	10002c13 	li	v0,11
    240c:	00000013 	nop
    2410:	08003413 	li	ra,13
    2414:	18450033 	sub	v1,ra,v0
    2418:	21000413 	add	a0,a0,1
    241c:	28000813 	li	a1,2
    2420:	f90bd0e3 	bne	a0,a1,2408 <test_31+0x4>
    2424:	e8000813 	li	s9,2
    2428:	e0007c13 	li	s8,31
    242c:	00fb18e3 	bne	v1,s9,24b8 <fail>

00002430 <test_32>:
    2430:	20000013 	li	a0,0
    2434:	10002c13 	li	v0,11
    2438:	00000013 	nop
    243c:	08003813 	li	ra,14
    2440:	00000013 	nop
    2444:	18450033 	sub	v1,ra,v0
    2448:	21000413 	add	a0,a0,1
    244c:	28000813 	li	a1,2
    2450:	f90bc8e3 	bne	a0,a1,2434 <test_32+0x4>
    2454:	e8000c13 	li	s9,3
    2458:	e0008013 	li	s8,32
    245c:	00fab8e3 	bne	v1,s9,24b8 <fail>

00002460 <test_33>:
    2460:	20000013 	li	a0,0
    2464:	10002c13 	li	v0,11
    2468:	00000013 	nop
    246c:	00000013 	nop
    2470:	08003c13 	li	ra,15
    2474:	18450033 	sub	v1,ra,v0
    2478:	21000413 	add	a0,a0,1
    247c:	28000813 	li	a1,2
    2480:	f90bc8e3 	bne	a0,a1,2464 <test_33+0x4>
    2484:	e8001013 	li	s9,4
    2488:	e0008413 	li	s8,33
    248c:	00fa58e3 	bne	v1,s9,24b8 <fail>
    2490:	dec00413 	add	s7,s7,1
    2494:	d0000813 	li	s6,2
    2498:	def4f0e3 	bne	s7,s6,2010 <stats>
    249c:	d0000013 	li	s6,0
    24a0:	02b401fb 	mtpcr	zero,s6,cr10
    24a4:	00000013 	nop
    24a8:	00000013 	nop
    24ac:	00000013 	nop
    24b0:	00000013 	nop
    24b4:	003820e3 	bne	zero,s8,24c4 <pass>

000024b8 <fail>:
    24b8:	07b801fb 	mtpcr	zero,s8,cr30
    24bc:	00000063 	b	24bc <fail+0x4>
    24c0:	00000013 	nop

000024c4 <pass>:
    24c4:	08000413 	li	ra,1
    24c8:	078201fb 	mtpcr	zero,ra,cr30
    24cc:	00000063 	b	24cc <pass+0x8>
    24d0:	00000013 	nop
    24d4:	00000013 	nop
    24d8:	00000013 	nop
    24dc:	00000013 	nop
