
riscv-v2_srl:     file format elf32-littleriscv


Disassembly of section .text:

00002000 <_start>:
    2000:	0800017b 	mfpcr	ra,cr0
    2004:	087dff93 	and	ra,ra,-129
    2008:	000201fb 	mtpcr	zero,ra,cr0
    200c:	d8000013 	li	s7,0

00002010 <stats>:
    2010:	02b601fb 	mtpcr	zero,s7,cr10
    2014:	00000013 	nop
    2018:	00000013 	nop
    201c:	00000013 	nop
    2020:	00000013 	nop

00002024 <test_2>:
    2024:	0c000037 	lui	ra,0x80000
    2028:	10000013 	li	v0,0
    202c:	184402b3 	srl	v1,ra,v0
    2030:	ec000037 	lui	s9,0x80000
    2034:	e0000813 	li	s8,2
    2038:	28fa80e3 	bne	v1,s9,2578 <fail>

0000203c <test_3>:
    203c:	0c000037 	lui	ra,0x80000
    2040:	10000413 	li	v0,1
    2044:	184402b3 	srl	v1,ra,v0
    2048:	ea000037 	lui	s9,0x40000
    204c:	e0000c13 	li	s8,3
    2050:	28fa50e3 	bne	v1,s9,2578 <fail>

00002054 <test_4>:
    2054:	0c000037 	lui	ra,0x80000
    2058:	10001c13 	li	v0,7
    205c:	184402b3 	srl	v1,ra,v0
    2060:	e8080037 	lui	s9,0x1000
    2064:	e0001013 	li	s8,4
    2068:	28fa20e3 	bne	v1,s9,2578 <fail>

0000206c <test_5>:
    206c:	0c000037 	lui	ra,0x80000
    2070:	10003813 	li	v0,14
    2074:	184402b3 	srl	v1,ra,v0
    2078:	e8001037 	lui	s9,0x20
    207c:	e0001413 	li	s8,5
    2080:	20fbf0e3 	bne	v1,s9,2578 <fail>

00002084 <test_6>:
    2084:	0c000037 	lui	ra,0x80000
    2088:	08400413 	add	ra,ra,1
    208c:	10007c13 	li	v0,31
    2090:	184402b3 	srl	v1,ra,v0
    2094:	e8000413 	li	s9,1
    2098:	e0001813 	li	s8,6
    209c:	20fbb8e3 	bne	v1,s9,2578 <fail>

000020a0 <test_7>:
    20a0:	083ffc13 	li	ra,-1
    20a4:	10000013 	li	v0,0
    20a8:	184402b3 	srl	v1,ra,v0
    20ac:	e83ffc13 	li	s9,-1
    20b0:	e0001c13 	li	s8,7
    20b4:	20fb88e3 	bne	v1,s9,2578 <fail>

000020b8 <test_8>:
    20b8:	083ffc13 	li	ra,-1
    20bc:	10000413 	li	v0,1
    20c0:	184402b3 	srl	v1,ra,v0
    20c4:	ec000037 	lui	s9,0x80000
    20c8:	ef7ffc13 	add	s9,s9,-1
    20cc:	e0002013 	li	s8,8
    20d0:	20fb50e3 	bne	v1,s9,2578 <fail>

000020d4 <test_9>:
    20d4:	083ffc13 	li	ra,-1
    20d8:	10001c13 	li	v0,7
    20dc:	184402b3 	srl	v1,ra,v0
    20e0:	e8100037 	lui	s9,0x2000
    20e4:	ef7ffc13 	add	s9,s9,-1
    20e8:	e0002413 	li	s8,9
    20ec:	20fb18e3 	bne	v1,s9,2578 <fail>

000020f0 <test_10>:
    20f0:	083ffc13 	li	ra,-1
    20f4:	10003813 	li	v0,14
    20f8:	184402b3 	srl	v1,ra,v0
    20fc:	e8002037 	lui	s9,0x40
    2100:	ef7ffc13 	add	s9,s9,-1
    2104:	e0002813 	li	s8,10
    2108:	20fae0e3 	bne	v1,s9,2578 <fail>

0000210c <test_11>:
    210c:	083ffc13 	li	ra,-1
    2110:	10007c13 	li	v0,31
    2114:	184402b3 	srl	v1,ra,v0
    2118:	e8000413 	li	s9,1
    211c:	e0002c13 	li	s8,11
    2120:	20fab0e3 	bne	v1,s9,2578 <fail>

00002124 <test_12>:
    2124:	09090937 	lui	ra,0x21212
    2128:	08448413 	add	ra,ra,289
    212c:	10000013 	li	v0,0
    2130:	184402b3 	srl	v1,ra,v0
    2134:	e9090937 	lui	s9,0x21212
    2138:	ef448413 	add	s9,s9,289
    213c:	e0003013 	li	s8,12
    2140:	20fa70e3 	bne	v1,s9,2578 <fail>

00002144 <test_13>:
    2144:	09090937 	lui	ra,0x21212
    2148:	08448413 	add	ra,ra,289
    214c:	10000413 	li	v0,1
    2150:	184402b3 	srl	v1,ra,v0
    2154:	e88484b7 	lui	s9,0x10909
    2158:	ef424013 	add	s9,s9,144
    215c:	e0003413 	li	s8,13
    2160:	20fa30e3 	bne	v1,s9,2578 <fail>

00002164 <test_14>:
    2164:	09090937 	lui	ra,0x21212
    2168:	08448413 	add	ra,ra,289
    216c:	10001c13 	li	v0,7
    2170:	184402b3 	srl	v1,ra,v0
    2174:	e8021237 	lui	s9,0x424
    2178:	ef490813 	add	s9,s9,578
    217c:	e0003813 	li	s8,14
    2180:	18fbf0e3 	bne	v1,s9,2578 <fail>

00002184 <test_15>:
    2184:	09090937 	lui	ra,0x21212
    2188:	08448413 	add	ra,ra,289
    218c:	10003813 	li	v0,14
    2190:	184402b3 	srl	v1,ra,v0
    2194:	e8000437 	lui	s9,0x8
    2198:	ef521013 	add	s9,s9,1156
    219c:	e0003c13 	li	s8,15
    21a0:	18fbb0e3 	bne	v1,s9,2578 <fail>

000021a4 <test_16>:
    21a4:	09090937 	lui	ra,0x21212
    21a8:	08448413 	add	ra,ra,289
    21ac:	10007c13 	li	v0,31
    21b0:	184402b3 	srl	v1,ra,v0
    21b4:	e8000013 	li	s9,0
    21b8:	e0004013 	li	s8,16
    21bc:	18fb78e3 	bne	v1,s9,2578 <fail>

000021c0 <test_17>:
    21c0:	09090937 	lui	ra,0x21212
    21c4:	08448413 	add	ra,ra,289
    21c8:	103f8013 	li	v0,-32
    21cc:	184402b3 	srl	v1,ra,v0
    21d0:	e9090937 	lui	s9,0x21212
    21d4:	ef448413 	add	s9,s9,289
    21d8:	e0004413 	li	s8,17
    21dc:	18fb38e3 	bne	v1,s9,2578 <fail>

000021e0 <test_18>:
    21e0:	09090937 	lui	ra,0x21212
    21e4:	08448413 	add	ra,ra,289
    21e8:	103f8413 	li	v0,-31
    21ec:	184402b3 	srl	v1,ra,v0
    21f0:	e88484b7 	lui	s9,0x10909
    21f4:	ef424013 	add	s9,s9,144
    21f8:	e0004813 	li	s8,18
    21fc:	18faf8e3 	bne	v1,s9,2578 <fail>

00002200 <test_19>:
    2200:	09090937 	lui	ra,0x21212
    2204:	08448413 	add	ra,ra,289
    2208:	103f9c13 	li	v0,-25
    220c:	184402b3 	srl	v1,ra,v0
    2210:	e8021237 	lui	s9,0x424
    2214:	ef490813 	add	s9,s9,578
    2218:	e0004c13 	li	s8,19
    221c:	18fab8e3 	bne	v1,s9,2578 <fail>

00002220 <test_20>:
    2220:	09090937 	lui	ra,0x21212
    2224:	08448413 	add	ra,ra,289
    2228:	103fb813 	li	v0,-18
    222c:	184402b3 	srl	v1,ra,v0
    2230:	e8000437 	lui	s9,0x8
    2234:	ef521013 	add	s9,s9,1156
    2238:	e0005013 	li	s8,20
    223c:	18fa78e3 	bne	v1,s9,2578 <fail>

00002240 <test_21>:
    2240:	09090937 	lui	ra,0x21212
    2244:	08448413 	add	ra,ra,289
    2248:	103ffc13 	li	v0,-1
    224c:	184402b3 	srl	v1,ra,v0
    2250:	e8000013 	li	s9,0
    2254:	e0005413 	li	s8,21
    2258:	18fa40e3 	bne	v1,s9,2578 <fail>

0000225c <test_22>:
    225c:	0c000037 	lui	ra,0x80000
    2260:	10001c13 	li	v0,7
    2264:	084402b3 	srl	ra,ra,v0
    2268:	e8080037 	lui	s9,0x1000
    226c:	e0005813 	li	s8,22
    2270:	187a10e3 	bne	ra,s9,2578 <fail>

00002274 <test_23>:
    2274:	0c000037 	lui	ra,0x80000
    2278:	10003813 	li	v0,14
    227c:	104402b3 	srl	v0,ra,v0
    2280:	e8001037 	lui	s9,0x20
    2284:	e0005c13 	li	s8,23
    2288:	10bbe0e3 	bne	v0,s9,2578 <fail>

0000228c <test_24>:
    228c:	08001c13 	li	ra,7
    2290:	084202b3 	srl	ra,ra,ra
    2294:	e8000013 	li	s9,0
    2298:	e0006013 	li	s8,24
    229c:	107bb8e3 	bne	ra,s9,2578 <fail>

000022a0 <test_25>:
    22a0:	20000013 	li	a0,0
    22a4:	0c000037 	lui	ra,0x80000
    22a8:	10001c13 	li	v0,7
    22ac:	184402b3 	srl	v1,ra,v0
    22b0:	30c00013 	move	a2,v1
    22b4:	21000413 	add	a0,a0,1
    22b8:	28000813 	li	a1,2
    22bc:	f90bd0e3 	bne	a0,a1,22a4 <test_25+0x4>
    22c0:	e8080037 	lui	s9,0x1000
    22c4:	e0006413 	li	s8,25
    22c8:	11bb60e3 	bne	a2,s9,2578 <fail>

000022cc <test_26>:
    22cc:	20000013 	li	a0,0
    22d0:	0c000037 	lui	ra,0x80000
    22d4:	10003813 	li	v0,14
    22d8:	184402b3 	srl	v1,ra,v0
    22dc:	00000013 	nop
    22e0:	30c00013 	move	a2,v1
    22e4:	21000413 	add	a0,a0,1
    22e8:	28000813 	li	a1,2
    22ec:	f90bc8e3 	bne	a0,a1,22d0 <test_26+0x4>
    22f0:	e8001037 	lui	s9,0x20
    22f4:	e0006813 	li	s8,26
    22f8:	11bb00e3 	bne	a2,s9,2578 <fail>

000022fc <test_27>:
    22fc:	20000013 	li	a0,0
    2300:	0c000037 	lui	ra,0x80000
    2304:	10007c13 	li	v0,31
    2308:	184402b3 	srl	v1,ra,v0
    230c:	00000013 	nop
    2310:	00000013 	nop
    2314:	30c00013 	move	a2,v1
    2318:	21000413 	add	a0,a0,1
    231c:	28000813 	li	a1,2
    2320:	f90bc0e3 	bne	a0,a1,2300 <test_27+0x4>
    2324:	e8000413 	li	s9,1
    2328:	e0006c13 	li	s8,27
    232c:	11ba98e3 	bne	a2,s9,2578 <fail>

00002330 <test_28>:
    2330:	20000013 	li	a0,0
    2334:	0c000037 	lui	ra,0x80000
    2338:	10001c13 	li	v0,7
    233c:	184402b3 	srl	v1,ra,v0
    2340:	21000413 	add	a0,a0,1
    2344:	28000813 	li	a1,2
    2348:	f90bd8e3 	bne	a0,a1,2334 <test_28+0x4>
    234c:	e8080037 	lui	s9,0x1000
    2350:	e0007013 	li	s8,28
    2354:	10fa48e3 	bne	v1,s9,2578 <fail>

00002358 <test_29>:
    2358:	20000013 	li	a0,0
    235c:	0c000037 	lui	ra,0x80000
    2360:	10003813 	li	v0,14
    2364:	00000013 	nop
    2368:	184402b3 	srl	v1,ra,v0
    236c:	21000413 	add	a0,a0,1
    2370:	28000813 	li	a1,2
    2374:	f90bd0e3 	bne	a0,a1,235c <test_29+0x4>
    2378:	e8001037 	lui	s9,0x20
    237c:	e0007413 	li	s8,29
    2380:	08fbf0e3 	bne	v1,s9,2578 <fail>

00002384 <test_30>:
    2384:	20000013 	li	a0,0
    2388:	0c000037 	lui	ra,0x80000
    238c:	10007c13 	li	v0,31
    2390:	00000013 	nop
    2394:	00000013 	nop
    2398:	184402b3 	srl	v1,ra,v0
    239c:	21000413 	add	a0,a0,1
    23a0:	28000813 	li	a1,2
    23a4:	f90bc8e3 	bne	a0,a1,2388 <test_30+0x4>
    23a8:	e8000413 	li	s9,1
    23ac:	e0007813 	li	s8,30
    23b0:	08fb90e3 	bne	v1,s9,2578 <fail>

000023b4 <test_31>:
    23b4:	20000013 	li	a0,0
    23b8:	0c000037 	lui	ra,0x80000
    23bc:	00000013 	nop
    23c0:	10001c13 	li	v0,7
    23c4:	184402b3 	srl	v1,ra,v0
    23c8:	21000413 	add	a0,a0,1
    23cc:	28000813 	li	a1,2
    23d0:	f90bd0e3 	bne	a0,a1,23b8 <test_31+0x4>
    23d4:	e8080037 	lui	s9,0x1000
    23d8:	e0007c13 	li	s8,31
    23dc:	08fb38e3 	bne	v1,s9,2578 <fail>

000023e0 <test_32>:
    23e0:	20000013 	li	a0,0
    23e4:	0c000037 	lui	ra,0x80000
    23e8:	00000013 	nop
    23ec:	10003813 	li	v0,14
    23f0:	00000013 	nop
    23f4:	184402b3 	srl	v1,ra,v0
    23f8:	21000413 	add	a0,a0,1
    23fc:	28000813 	li	a1,2
    2400:	f90bc8e3 	bne	a0,a1,23e4 <test_32+0x4>
    2404:	e8001037 	lui	s9,0x20
    2408:	e0008013 	li	s8,32
    240c:	08fad8e3 	bne	v1,s9,2578 <fail>

00002410 <test_33>:
    2410:	20000013 	li	a0,0
    2414:	0c000037 	lui	ra,0x80000
    2418:	00000013 	nop
    241c:	00000013 	nop
    2420:	10007c13 	li	v0,31
    2424:	184402b3 	srl	v1,ra,v0
    2428:	21000413 	add	a0,a0,1
    242c:	28000813 	li	a1,2
    2430:	f90bc8e3 	bne	a0,a1,2414 <test_33+0x4>
    2434:	e8000413 	li	s9,1
    2438:	e0008413 	li	s8,33
    243c:	08fa78e3 	bne	v1,s9,2578 <fail>

00002440 <test_34>:
    2440:	20000013 	li	a0,0
    2444:	10001c13 	li	v0,7
    2448:	0c000037 	lui	ra,0x80000
    244c:	184402b3 	srl	v1,ra,v0
    2450:	21000413 	add	a0,a0,1
    2454:	28000813 	li	a1,2
    2458:	f90bd8e3 	bne	a0,a1,2444 <test_34+0x4>
    245c:	e8080037 	lui	s9,0x1000
    2460:	e0008813 	li	s8,34
    2464:	08fa28e3 	bne	v1,s9,2578 <fail>

00002468 <test_35>:
    2468:	20000013 	li	a0,0
    246c:	10003813 	li	v0,14
    2470:	0c000037 	lui	ra,0x80000
    2474:	00000013 	nop
    2478:	184402b3 	srl	v1,ra,v0
    247c:	21000413 	add	a0,a0,1
    2480:	28000813 	li	a1,2
    2484:	f90bd0e3 	bne	a0,a1,246c <test_35+0x4>
    2488:	e8001037 	lui	s9,0x20
    248c:	e0008c13 	li	s8,35
    2490:	00fbd0e3 	bne	v1,s9,2578 <fail>

00002494 <test_36>:
    2494:	20000013 	li	a0,0
    2498:	10007c13 	li	v0,31
    249c:	0c000037 	lui	ra,0x80000
    24a0:	00000013 	nop
    24a4:	00000013 	nop
    24a8:	184402b3 	srl	v1,ra,v0
    24ac:	21000413 	add	a0,a0,1
    24b0:	28000813 	li	a1,2
    24b4:	f90bc8e3 	bne	a0,a1,2498 <test_36+0x4>
    24b8:	e8000413 	li	s9,1
    24bc:	e0009013 	li	s8,36
    24c0:	00fb70e3 	bne	v1,s9,2578 <fail>

000024c4 <test_37>:
    24c4:	20000013 	li	a0,0
    24c8:	10001c13 	li	v0,7
    24cc:	00000013 	nop
    24d0:	0c000037 	lui	ra,0x80000
    24d4:	184402b3 	srl	v1,ra,v0
    24d8:	21000413 	add	a0,a0,1
    24dc:	28000813 	li	a1,2
    24e0:	f90bd0e3 	bne	a0,a1,24c8 <test_37+0x4>
    24e4:	e8080037 	lui	s9,0x1000
    24e8:	e0009413 	li	s8,37
    24ec:	00fb18e3 	bne	v1,s9,2578 <fail>

000024f0 <test_38>:
    24f0:	20000013 	li	a0,0
    24f4:	10003813 	li	v0,14
    24f8:	00000013 	nop
    24fc:	0c000037 	lui	ra,0x80000
    2500:	00000013 	nop
    2504:	184402b3 	srl	v1,ra,v0
    2508:	21000413 	add	a0,a0,1
    250c:	28000813 	li	a1,2
    2510:	f90bc8e3 	bne	a0,a1,24f4 <test_38+0x4>
    2514:	e8001037 	lui	s9,0x20
    2518:	e0009813 	li	s8,38
    251c:	00fab8e3 	bne	v1,s9,2578 <fail>

00002520 <test_39>:
    2520:	20000013 	li	a0,0
    2524:	10007c13 	li	v0,31
    2528:	00000013 	nop
    252c:	00000013 	nop
    2530:	0c000037 	lui	ra,0x80000
    2534:	184402b3 	srl	v1,ra,v0
    2538:	21000413 	add	a0,a0,1
    253c:	28000813 	li	a1,2
    2540:	f90bc8e3 	bne	a0,a1,2524 <test_39+0x4>
    2544:	e8000413 	li	s9,1
    2548:	e0009c13 	li	s8,39
    254c:	00fa58e3 	bne	v1,s9,2578 <fail>
    2550:	dec00413 	add	s7,s7,1
    2554:	d0000813 	li	s6,2
    2558:	d6f570e3 	bne	s7,s6,2010 <stats>
    255c:	d0000013 	li	s6,0
    2560:	02b401fb 	mtpcr	zero,s6,cr10
    2564:	00000013 	nop
    2568:	00000013 	nop
    256c:	00000013 	nop
    2570:	00000013 	nop
    2574:	003820e3 	bne	zero,s8,2584 <pass>

00002578 <fail>:
    2578:	07b801fb 	mtpcr	zero,s8,cr30
    257c:	00000063 	b	257c <fail+0x4>
    2580:	00000013 	nop

00002584 <pass>:
    2584:	08000413 	li	ra,1
    2588:	078201fb 	mtpcr	zero,ra,cr30
    258c:	00000063 	b	258c <pass+0x8>
    2590:	00000013 	nop
    2594:	00000013 	nop
    2598:	00000013 	nop
    259c:	00000013 	nop
