
riscv_sb:     file format elf64-littleriscv


Disassembly of section .text:

0000000000002000 <_start>:
    2000:	08000137 	lui	ra,0x2
    2004:	08508013 	add	ra,ra,1056
    2008:	103ea813 	li	v0,-86
    200c:	00440023 	sb	v0,0(ra)
    2010:	18400003 	lb	v1,0(ra)
    2014:	e83ea813 	li	s9,-86
    2018:	e0000813 	li	s8,2
    201c:	18fbb0e3 	bne	v1,s9,23f4 <fail>

0000000000002020 <test_3>:
    2020:	08000137 	lui	ra,0x2
    2024:	08508013 	add	ra,ra,1056
    2028:	10000013 	li	v0,0
    202c:	00440423 	sb	v0,1(ra)
    2030:	18400403 	lb	v1,1(ra)
    2034:	e8000013 	li	s9,0
    2038:	e0000c13 	li	s8,3
    203c:	18fb70e3 	bne	v1,s9,23f4 <fail>

0000000000002040 <test_4>:
    2040:	08000137 	lui	ra,0x2
    2044:	08508013 	add	ra,ra,1056
    2048:	17ffffb7 	lui	v0,0xfffff
    204c:	10be801b 	addw	v0,v0,-96
    2050:	00440823 	sb	v0,2(ra)
    2054:	18400883 	lh	v1,2(ra)
    2058:	efffffb7 	lui	s9,0xfffff
    205c:	ef7e801b 	addw	s9,s9,-96
    2060:	e0001013 	li	s8,4
    2064:	18fb20e3 	bne	v1,s9,23f4 <fail>

0000000000002068 <test_5>:
    2068:	08000137 	lui	ra,0x2
    206c:	08508013 	add	ra,ra,1056
    2070:	10002813 	li	v0,10
    2074:	00440c23 	sb	v0,3(ra)
    2078:	18400c03 	lb	v1,3(ra)
    207c:	e8002813 	li	s9,10
    2080:	e0001413 	li	s8,5
    2084:	18fae0e3 	bne	v1,s9,23f4 <fail>

0000000000002088 <test_6>:
    2088:	08000137 	lui	ra,0x2
    208c:	08509c13 	add	ra,ra,1063
    2090:	103ea813 	li	v0,-86
    2094:	f845f423 	sb	v0,-3(ra)
    2098:	187ff403 	lb	v1,-3(ra)
    209c:	e83ea813 	li	s9,-86
    20a0:	e0001813 	li	s8,6
    20a4:	18faa0e3 	bne	v1,s9,23f4 <fail>

00000000000020a8 <test_7>:
    20a8:	08000137 	lui	ra,0x2
    20ac:	08509c13 	add	ra,ra,1063
    20b0:	10000013 	li	v0,0
    20b4:	f845f823 	sb	v0,-2(ra)
    20b8:	187ff803 	lb	v1,-2(ra)
    20bc:	e8000013 	li	s9,0
    20c0:	e0001c13 	li	s8,7
    20c4:	18fa60e3 	bne	v1,s9,23f4 <fail>

00000000000020c8 <test_8>:
    20c8:	08000137 	lui	ra,0x2
    20cc:	08509c13 	add	ra,ra,1063
    20d0:	103e8013 	li	v0,-96
    20d4:	f845fc23 	sb	v0,-1(ra)
    20d8:	187ffc03 	lb	v1,-1(ra)
    20dc:	e83e8013 	li	s9,-96
    20e0:	e0002013 	li	s8,8
    20e4:	18fa20e3 	bne	v1,s9,23f4 <fail>

00000000000020e8 <test_9>:
    20e8:	08000137 	lui	ra,0x2
    20ec:	08509c13 	add	ra,ra,1063
    20f0:	10002813 	li	v0,10
    20f4:	00440023 	sb	v0,0(ra)
    20f8:	18400003 	lb	v1,0(ra)
    20fc:	e8002813 	li	s9,10
    2100:	e0002413 	li	s8,9
    2104:	10fbe0e3 	bne	v1,s9,23f4 <fail>

0000000000002108 <test_10>:
    2108:	08000137 	lui	ra,0x2
    210c:	0850a013 	add	ra,ra,1064
    2110:	1091a2b7 	lui	v0,0x12345
    2114:	1099e01b 	addw	v0,v0,1656
    2118:	207f8013 	add	a0,ra,-32
    211c:	01048023 	sb	v0,32(a0)
    2120:	18400003 	lb	v1,0(ra)
    2124:	e801e013 	li	s9,120
    2128:	e0002813 	li	s8,10
    212c:	10fb90e3 	bne	v1,s9,23f4 <fail>

0000000000002130 <test_11>:
    2130:	08000137 	lui	ra,0x2
    2134:	0850a013 	add	ra,ra,1064
    2138:	100001b7 	lui	v0,0x3
    213c:	1082601b 	addw	v0,v0,152
    2140:	087fe813 	add	ra,ra,-6
    2144:	00441c23 	sb	v0,7(ra)
    2148:	20000137 	lui	a0,0x2
    214c:	2110a413 	add	a0,a0,1065
    2150:	19000003 	lb	v1,0(a0)
    2154:	e83e6013 	li	s9,-104
    2158:	e0002c13 	li	s8,11
    215c:	10fb30e3 	bne	v1,s9,23f4 <fail>

0000000000002160 <test_12>:
    2160:	e0003013 	li	s8,12
    2164:	20000013 	li	a0,0
    2168:	083f7413 	li	ra,-35
    216c:	10000137 	lui	v0,0x2
    2170:	10908013 	add	v0,v0,1056
    2174:	00820023 	sb	ra,0(v0)
    2178:	18800003 	lb	v1,0(v0)
    217c:	e83f7413 	li	s9,-35
    2180:	10fae8e3 	bne	v1,s9,23f4 <fail>
    2184:	21000413 	add	a0,a0,1
    2188:	28000813 	li	a1,2
    218c:	f90bb8e3 	bne	a0,a1,2168 <test_12+0x8>

0000000000002190 <test_13>:
    2190:	e0003413 	li	s8,13
    2194:	20000013 	li	a0,0
    2198:	083f3413 	li	ra,-51
    219c:	10000137 	lui	v0,0x2
    21a0:	10908013 	add	v0,v0,1056
    21a4:	00000013 	nop
    21a8:	00820423 	sb	ra,1(v0)
    21ac:	18800403 	lb	v1,1(v0)
    21b0:	e83f3413 	li	s9,-51
    21b4:	10fa80e3 	bne	v1,s9,23f4 <fail>
    21b8:	21000413 	add	a0,a0,1
    21bc:	28000813 	li	a1,2
    21c0:	f90bb0e3 	bne	a0,a1,2198 <test_13+0x8>

00000000000021c4 <test_14>:
    21c4:	e0003813 	li	s8,14
    21c8:	20000013 	li	a0,0
    21cc:	083f3013 	li	ra,-52
    21d0:	10000137 	lui	v0,0x2
    21d4:	10908013 	add	v0,v0,1056
    21d8:	00000013 	nop
    21dc:	00000013 	nop
    21e0:	00820823 	sb	ra,2(v0)
    21e4:	18800803 	lb	v1,2(v0)
    21e8:	e83f3013 	li	s9,-52
    21ec:	10fa10e3 	bne	v1,s9,23f4 <fail>
    21f0:	21000413 	add	a0,a0,1
    21f4:	28000813 	li	a1,2
    21f8:	f90ba8e3 	bne	a0,a1,21cc <test_14+0x8>

00000000000021fc <test_15>:
    21fc:	e0003c13 	li	s8,15
    2200:	20000013 	li	a0,0
    2204:	083ef013 	li	ra,-68
    2208:	00000013 	nop
    220c:	10000137 	lui	v0,0x2
    2210:	10908013 	add	v0,v0,1056
    2214:	00820c23 	sb	ra,3(v0)
    2218:	18800c03 	lb	v1,3(v0)
    221c:	e83ef013 	li	s9,-68
    2220:	08fba8e3 	bne	v1,s9,23f4 <fail>
    2224:	21000413 	add	a0,a0,1
    2228:	28000813 	li	a1,2
    222c:	f90bb0e3 	bne	a0,a1,2204 <test_15+0x8>

0000000000002230 <test_16>:
    2230:	e0004013 	li	s8,16
    2234:	20000013 	li	a0,0
    2238:	083eec13 	li	ra,-69
    223c:	00000013 	nop
    2240:	10000137 	lui	v0,0x2
    2244:	10908013 	add	v0,v0,1056
    2248:	00000013 	nop
    224c:	00821023 	sb	ra,4(v0)
    2250:	18801003 	lb	v1,4(v0)
    2254:	e83eec13 	li	s9,-69
    2258:	08fb38e3 	bne	v1,s9,23f4 <fail>
    225c:	21000413 	add	a0,a0,1
    2260:	28000813 	li	a1,2
    2264:	f90ba8e3 	bne	a0,a1,2238 <test_16+0x8>

0000000000002268 <test_17>:
    2268:	e0004413 	li	s8,17
    226c:	20000013 	li	a0,0
    2270:	083eac13 	li	ra,-85
    2274:	00000013 	nop
    2278:	00000013 	nop
    227c:	10000137 	lui	v0,0x2
    2280:	10908013 	add	v0,v0,1056
    2284:	00821423 	sb	ra,5(v0)
    2288:	18801403 	lb	v1,5(v0)
    228c:	e83eac13 	li	s9,-85
    2290:	08fac8e3 	bne	v1,s9,23f4 <fail>
    2294:	21000413 	add	a0,a0,1
    2298:	28000813 	li	a1,2
    229c:	f90ba8e3 	bne	a0,a1,2270 <test_17+0x8>

00000000000022a0 <test_18>:
    22a0:	e0004813 	li	s8,18
    22a4:	20000013 	li	a0,0
    22a8:	10000137 	lui	v0,0x2
    22ac:	10908013 	add	v0,v0,1056
    22b0:	0800cc13 	li	ra,51
    22b4:	00820023 	sb	ra,0(v0)
    22b8:	18800003 	lb	v1,0(v0)
    22bc:	e800cc13 	li	s9,51
    22c0:	08fa68e3 	bne	v1,s9,23f4 <fail>
    22c4:	21000413 	add	a0,a0,1
    22c8:	28000813 	li	a1,2
    22cc:	f90bb8e3 	bne	a0,a1,22a8 <test_18+0x8>

00000000000022d0 <test_19>:
    22d0:	e0004c13 	li	s8,19
    22d4:	20000013 	li	a0,0
    22d8:	10000137 	lui	v0,0x2
    22dc:	10908013 	add	v0,v0,1056
    22e0:	08008c13 	li	ra,35
    22e4:	00000013 	nop
    22e8:	00820423 	sb	ra,1(v0)
    22ec:	18800403 	lb	v1,1(v0)
    22f0:	e8008c13 	li	s9,35
    22f4:	08fa00e3 	bne	v1,s9,23f4 <fail>
    22f8:	21000413 	add	a0,a0,1
    22fc:	28000813 	li	a1,2
    2300:	f90bb0e3 	bne	a0,a1,22d8 <test_19+0x8>

0000000000002304 <test_20>:
    2304:	e0005013 	li	s8,20
    2308:	20000013 	li	a0,0
    230c:	10000137 	lui	v0,0x2
    2310:	10908013 	add	v0,v0,1056
    2314:	08008813 	li	ra,34
    2318:	00000013 	nop
    231c:	00000013 	nop
    2320:	00820823 	sb	ra,2(v0)
    2324:	18800803 	lb	v1,2(v0)
    2328:	e8008813 	li	s9,34
    232c:	00fb90e3 	bne	v1,s9,23f4 <fail>
    2330:	21000413 	add	a0,a0,1
    2334:	28000813 	li	a1,2
    2338:	f90ba8e3 	bne	a0,a1,230c <test_20+0x8>

000000000000233c <test_21>:
    233c:	e0005413 	li	s8,21
    2340:	20000013 	li	a0,0
    2344:	10000137 	lui	v0,0x2
    2348:	10908013 	add	v0,v0,1056
    234c:	00000013 	nop
    2350:	08004813 	li	ra,18
    2354:	00820c23 	sb	ra,3(v0)
    2358:	18800c03 	lb	v1,3(v0)
    235c:	e8004813 	li	s9,18
    2360:	00fb28e3 	bne	v1,s9,23f4 <fail>
    2364:	21000413 	add	a0,a0,1
    2368:	28000813 	li	a1,2
    236c:	f90bb0e3 	bne	a0,a1,2344 <test_21+0x8>

0000000000002370 <test_22>:
    2370:	e0005813 	li	s8,22
    2374:	20000013 	li	a0,0
    2378:	10000137 	lui	v0,0x2
    237c:	10908013 	add	v0,v0,1056
    2380:	00000013 	nop
    2384:	08004413 	li	ra,17
    2388:	00000013 	nop
    238c:	00821023 	sb	ra,4(v0)
    2390:	18801003 	lb	v1,4(v0)
    2394:	e8004413 	li	s9,17
    2398:	00fab8e3 	bne	v1,s9,23f4 <fail>
    239c:	21000413 	add	a0,a0,1
    23a0:	28000813 	li	a1,2
    23a4:	f90ba8e3 	bne	a0,a1,2378 <test_22+0x8>

00000000000023a8 <test_23>:
    23a8:	e0005c13 	li	s8,23
    23ac:	20000013 	li	a0,0
    23b0:	10000137 	lui	v0,0x2
    23b4:	10908013 	add	v0,v0,1056
    23b8:	00000013 	nop
    23bc:	00000013 	nop
    23c0:	08000413 	li	ra,1
    23c4:	00821423 	sb	ra,5(v0)
    23c8:	18801403 	lb	v1,5(v0)
    23cc:	e8000413 	li	s9,1
    23d0:	00fa48e3 	bne	v1,s9,23f4 <fail>
    23d4:	21000413 	add	a0,a0,1
    23d8:	28000813 	li	a1,2
    23dc:	f90ba8e3 	bne	a0,a1,23b0 <test_23+0x8>
    23e0:	6003bc13 	li	t0,239
    23e4:	68000137 	lui	t1,0x2
    23e8:	6b508013 	add	t1,t1,1056
    23ec:	03580c23 	sb	t0,3(t1)
    23f0:	003820e3 	bne	zero,s8,2400 <pass>

00000000000023f4 <fail>:
    23f4:	07b801fb 	mtpcr	zero,s8,cr30
    23f8:	00000063 	b	23f8 <fail+0x4>
    23fc:	00000013 	nop

0000000000002400 <pass>:
    2400:	0000012f 	fence
    2404:	08000413 	li	ra,1
    2408:	078201fb 	mtpcr	zero,ra,cr30
    240c:	00000063 	b	240c <pass+0xc>
    2410:	00000013 	nop
    2414:	00000013 	nop
    2418:	00000013 	nop
    241c:	00000013 	nop
