
riscv_add:     file format elf64-littleriscv


Disassembly of section .text:

0000000000002000 <_start>:
    2000:	08000013 	li	ra,0
    2004:	10000013 	li	v0,0
    2008:	18440033 	add	v1,ra,v0
    200c:	e8000013 	li	s9,0
    2010:	e0000813 	li	s8,2
    2014:	20fbc0e3 	bne	v1,s9,24f4 <fail>

0000000000002018 <test_3>:
    2018:	08000413 	li	ra,1
    201c:	10000413 	li	v0,1
    2020:	18440033 	add	v1,ra,v0
    2024:	e8000813 	li	s9,2
    2028:	e0000c13 	li	s8,3
    202c:	20fb90e3 	bne	v1,s9,24f4 <fail>

0000000000002030 <test_4>:
    2030:	08000c13 	li	ra,3
    2034:	10001c13 	li	v0,7
    2038:	18440033 	add	v1,ra,v0
    203c:	e8002813 	li	s9,10
    2040:	e0001013 	li	s8,4
    2044:	20fb60e3 	bne	v1,s9,24f4 <fail>

0000000000002048 <test_5>:
    2048:	08000013 	li	ra,0
    204c:	17fffc37 	lui	v0,0xffff8
    2050:	18440033 	add	v1,ra,v0
    2054:	effffc37 	lui	s9,0xffff8
    2058:	e0001413 	li	s8,5
    205c:	20fb30e3 	bne	v1,s9,24f4 <fail>

0000000000002060 <test_6>:
    2060:	0c000037 	lui	ra,0x80000
    2064:	10000013 	li	v0,0
    2068:	18440033 	add	v1,ra,v0
    206c:	ec000037 	lui	s9,0x80000
    2070:	e0001813 	li	s8,6
    2074:	20fb00e3 	bne	v1,s9,24f4 <fail>

0000000000002078 <test_7>:
    2078:	0c000037 	lui	ra,0x80000
    207c:	17fffc37 	lui	v0,0xffff8
    2080:	18440033 	add	v1,ra,v0
    2084:	efff8037 	lui	s9,0xfff00
    2088:	ef7fc01b 	addw	s9,s9,-16
    208c:	ef402c93 	sll	s9,s9,0xb
    2090:	e0001c13 	li	s8,7
    2094:	20fac0e3 	bne	v1,s9,24f4 <fail>

0000000000002098 <test_8>:
    2098:	08000013 	li	ra,0
    209c:	10000437 	lui	v0,0x8
    20a0:	10bffc1b 	addw	v0,v0,-1
    20a4:	18440033 	add	v1,ra,v0
    20a8:	e8000437 	lui	s9,0x8
    20ac:	ef7ffc1b 	addw	s9,s9,-1
    20b0:	e0002013 	li	s8,8
    20b4:	20fa80e3 	bne	v1,s9,24f4 <fail>

00000000000020b8 <test_9>:
    20b8:	0c000037 	lui	ra,0x80000
    20bc:	087ffc1b 	addw	ra,ra,-1
    20c0:	10000013 	li	v0,0
    20c4:	18440033 	add	v1,ra,v0
    20c8:	ec000037 	lui	s9,0x80000
    20cc:	ef7ffc1b 	addw	s9,s9,-1
    20d0:	e0002413 	li	s8,9
    20d4:	20fa40e3 	bne	v1,s9,24f4 <fail>

00000000000020d8 <test_10>:
    20d8:	0c000037 	lui	ra,0x80000
    20dc:	087ffc1b 	addw	ra,ra,-1
    20e0:	10000437 	lui	v0,0x8
    20e4:	10bffc1b 	addw	v0,v0,-1
    20e8:	18440033 	add	v1,ra,v0
    20ec:	e8008037 	lui	s9,0x100
    20f0:	ef403c1b 	addw	s9,s9,15
    20f4:	ef402c93 	sll	s9,s9,0xb
    20f8:	ef5ff813 	add	s9,s9,2046
    20fc:	e0002813 	li	s8,10
    2100:	18fbe8e3 	bne	v1,s9,24f4 <fail>

0000000000002104 <test_11>:
    2104:	0c000037 	lui	ra,0x80000
    2108:	10000437 	lui	v0,0x8
    210c:	10bffc1b 	addw	v0,v0,-1
    2110:	18440033 	add	v1,ra,v0
    2114:	ec000437 	lui	s9,0x80008
    2118:	ef7ffc1b 	addw	s9,s9,-1
    211c:	e0002c13 	li	s8,11
    2120:	18fba8e3 	bne	v1,s9,24f4 <fail>

0000000000002124 <test_12>:
    2124:	0c000037 	lui	ra,0x80000
    2128:	087ffc1b 	addw	ra,ra,-1
    212c:	17fffc37 	lui	v0,0xffff8
    2130:	18440033 	add	v1,ra,v0
    2134:	ebfffc37 	lui	s9,0x7fff8
    2138:	ef7ffc1b 	addw	s9,s9,-1
    213c:	e0003013 	li	s8,12
    2140:	18fb68e3 	bne	v1,s9,24f4 <fail>

0000000000002144 <test_13>:
    2144:	08000013 	li	ra,0
    2148:	103ffc13 	li	v0,-1
    214c:	18440033 	add	v1,ra,v0
    2150:	e83ffc13 	li	s9,-1
    2154:	e0003413 	li	s8,13
    2158:	18fb38e3 	bne	v1,s9,24f4 <fail>

000000000000215c <test_14>:
    215c:	083ffc13 	li	ra,-1
    2160:	10000413 	li	v0,1
    2164:	18440033 	add	v1,ra,v0
    2168:	e8000013 	li	s9,0
    216c:	e0003813 	li	s8,14
    2170:	18fb08e3 	bne	v1,s9,24f4 <fail>

0000000000002174 <test_15>:
    2174:	083ffc13 	li	ra,-1
    2178:	103ffc13 	li	v0,-1
    217c:	18440033 	add	v1,ra,v0
    2180:	e83ff813 	li	s9,-2
    2184:	e0003c13 	li	s8,15
    2188:	18fad8e3 	bne	v1,s9,24f4 <fail>

000000000000218c <test_16>:
    218c:	08000413 	li	ra,1
    2190:	14000037 	lui	v0,0x80000
    2194:	10bffc1b 	addw	v0,v0,-1
    2198:	18440033 	add	v1,ra,v0
    219c:	e8008037 	lui	s9,0x100
    21a0:	ef402c93 	sll	s9,s9,0xb
    21a4:	e0004013 	li	s8,16
    21a8:	18fa98e3 	bne	v1,s9,24f4 <fail>

00000000000021ac <test_17>:
    21ac:	08003413 	li	ra,13
    21b0:	10002c13 	li	v0,11
    21b4:	08440033 	add	ra,ra,v0
    21b8:	e8006013 	li	s9,24
    21bc:	e0004413 	li	s8,17
    21c0:	187a68e3 	bne	ra,s9,24f4 <fail>

00000000000021c4 <test_18>:
    21c4:	08003813 	li	ra,14
    21c8:	10002c13 	li	v0,11
    21cc:	10440033 	add	v0,ra,v0
    21d0:	e8006413 	li	s9,25
    21d4:	e0004813 	li	s8,18
    21d8:	18ba38e3 	bne	v0,s9,24f4 <fail>

00000000000021dc <test_19>:
    21dc:	08003413 	li	ra,13
    21e0:	08420033 	add	ra,ra,ra
    21e4:	e8006813 	li	s9,26
    21e8:	e0004c13 	li	s8,19
    21ec:	187a10e3 	bne	ra,s9,24f4 <fail>

00000000000021f0 <test_20>:
    21f0:	20000013 	li	a0,0
    21f4:	08003413 	li	ra,13
    21f8:	10002c13 	li	v0,11
    21fc:	18440033 	add	v1,ra,v0
    2200:	30c00013 	move	a2,v1
    2204:	21000413 	add	a0,a0,1
    2208:	28000813 	li	a1,2
    220c:	f90bd0e3 	bne	a0,a1,21f4 <test_20+0x4>
    2210:	e8006013 	li	s9,24
    2214:	e0005013 	li	s8,20
    2218:	11bbb8e3 	bne	a2,s9,24f4 <fail>

000000000000221c <test_21>:
    221c:	20000013 	li	a0,0
    2220:	08003813 	li	ra,14
    2224:	10002c13 	li	v0,11
    2228:	18440033 	add	v1,ra,v0
    222c:	00000013 	nop
    2230:	30c00013 	move	a2,v1
    2234:	21000413 	add	a0,a0,1
    2238:	28000813 	li	a1,2
    223c:	f90bc8e3 	bne	a0,a1,2220 <test_21+0x4>
    2240:	e8006413 	li	s9,25
    2244:	e0005413 	li	s8,21
    2248:	11bb58e3 	bne	a2,s9,24f4 <fail>

000000000000224c <test_22>:
    224c:	20000013 	li	a0,0
    2250:	08003c13 	li	ra,15
    2254:	10002c13 	li	v0,11
    2258:	18440033 	add	v1,ra,v0
    225c:	00000013 	nop
    2260:	00000013 	nop
    2264:	30c00013 	move	a2,v1
    2268:	21000413 	add	a0,a0,1
    226c:	28000813 	li	a1,2
    2270:	f90bc0e3 	bne	a0,a1,2250 <test_22+0x4>
    2274:	e8006813 	li	s9,26
    2278:	e0005813 	li	s8,22
    227c:	11baf0e3 	bne	a2,s9,24f4 <fail>

0000000000002280 <test_23>:
    2280:	20000013 	li	a0,0
    2284:	08003413 	li	ra,13
    2288:	10002c13 	li	v0,11
    228c:	18440033 	add	v1,ra,v0
    2290:	21000413 	add	a0,a0,1
    2294:	28000813 	li	a1,2
    2298:	f90bd8e3 	bne	a0,a1,2284 <test_23+0x4>
    229c:	e8006013 	li	s9,24
    22a0:	e0005c13 	li	s8,23
    22a4:	10faa0e3 	bne	v1,s9,24f4 <fail>

00000000000022a8 <test_24>:
    22a8:	20000013 	li	a0,0
    22ac:	08003813 	li	ra,14
    22b0:	10002c13 	li	v0,11
    22b4:	00000013 	nop
    22b8:	18440033 	add	v1,ra,v0
    22bc:	21000413 	add	a0,a0,1
    22c0:	28000813 	li	a1,2
    22c4:	f90bd0e3 	bne	a0,a1,22ac <test_24+0x4>
    22c8:	e8006413 	li	s9,25
    22cc:	e0006013 	li	s8,24
    22d0:	10fa48e3 	bne	v1,s9,24f4 <fail>

00000000000022d4 <test_25>:
    22d4:	20000013 	li	a0,0
    22d8:	08003c13 	li	ra,15
    22dc:	10002c13 	li	v0,11
    22e0:	00000013 	nop
    22e4:	00000013 	nop
    22e8:	18440033 	add	v1,ra,v0
    22ec:	21000413 	add	a0,a0,1
    22f0:	28000813 	li	a1,2
    22f4:	f90bc8e3 	bne	a0,a1,22d8 <test_25+0x4>
    22f8:	e8006813 	li	s9,26
    22fc:	e0006413 	li	s8,25
    2300:	08fbe8e3 	bne	v1,s9,24f4 <fail>

0000000000002304 <test_26>:
    2304:	20000013 	li	a0,0
    2308:	08003413 	li	ra,13
    230c:	00000013 	nop
    2310:	10002c13 	li	v0,11
    2314:	18440033 	add	v1,ra,v0
    2318:	21000413 	add	a0,a0,1
    231c:	28000813 	li	a1,2
    2320:	f90bd0e3 	bne	a0,a1,2308 <test_26+0x4>
    2324:	e8006013 	li	s9,24
    2328:	e0006813 	li	s8,26
    232c:	08fb90e3 	bne	v1,s9,24f4 <fail>

0000000000002330 <test_27>:
    2330:	20000013 	li	a0,0
    2334:	08003813 	li	ra,14
    2338:	00000013 	nop
    233c:	10002c13 	li	v0,11
    2340:	00000013 	nop
    2344:	18440033 	add	v1,ra,v0
    2348:	21000413 	add	a0,a0,1
    234c:	28000813 	li	a1,2
    2350:	f90bc8e3 	bne	a0,a1,2334 <test_27+0x4>
    2354:	e8006413 	li	s9,25
    2358:	e0006c13 	li	s8,27
    235c:	08fb30e3 	bne	v1,s9,24f4 <fail>

0000000000002360 <test_28>:
    2360:	20000013 	li	a0,0
    2364:	08003c13 	li	ra,15
    2368:	00000013 	nop
    236c:	00000013 	nop
    2370:	10002c13 	li	v0,11
    2374:	18440033 	add	v1,ra,v0
    2378:	21000413 	add	a0,a0,1
    237c:	28000813 	li	a1,2
    2380:	f90bc8e3 	bne	a0,a1,2364 <test_28+0x4>
    2384:	e8006813 	li	s9,26
    2388:	e0007013 	li	s8,28
    238c:	08fad0e3 	bne	v1,s9,24f4 <fail>

0000000000002390 <test_29>:
    2390:	20000013 	li	a0,0
    2394:	10002c13 	li	v0,11
    2398:	08003413 	li	ra,13
    239c:	18440033 	add	v1,ra,v0
    23a0:	21000413 	add	a0,a0,1
    23a4:	28000813 	li	a1,2
    23a8:	f90bd8e3 	bne	a0,a1,2394 <test_29+0x4>
    23ac:	e8006013 	li	s9,24
    23b0:	e0007413 	li	s8,29
    23b4:	08fa80e3 	bne	v1,s9,24f4 <fail>

00000000000023b8 <test_30>:
    23b8:	20000013 	li	a0,0
    23bc:	10002c13 	li	v0,11
    23c0:	08003813 	li	ra,14
    23c4:	00000013 	nop
    23c8:	18440033 	add	v1,ra,v0
    23cc:	21000413 	add	a0,a0,1
    23d0:	28000813 	li	a1,2
    23d4:	f90bd0e3 	bne	a0,a1,23bc <test_30+0x4>
    23d8:	e8006413 	li	s9,25
    23dc:	e0007813 	li	s8,30
    23e0:	08fa28e3 	bne	v1,s9,24f4 <fail>

00000000000023e4 <test_31>:
    23e4:	20000013 	li	a0,0
    23e8:	10002c13 	li	v0,11
    23ec:	08003c13 	li	ra,15
    23f0:	00000013 	nop
    23f4:	00000013 	nop
    23f8:	18440033 	add	v1,ra,v0
    23fc:	21000413 	add	a0,a0,1
    2400:	28000813 	li	a1,2
    2404:	f90bc8e3 	bne	a0,a1,23e8 <test_31+0x4>
    2408:	e8006813 	li	s9,26
    240c:	e0007c13 	li	s8,31
    2410:	00fbc8e3 	bne	v1,s9,24f4 <fail>

0000000000002414 <test_32>:
    2414:	20000013 	li	a0,0
    2418:	10002c13 	li	v0,11
    241c:	00000013 	nop
    2420:	08003413 	li	ra,13
    2424:	18440033 	add	v1,ra,v0
    2428:	21000413 	add	a0,a0,1
    242c:	28000813 	li	a1,2
    2430:	f90bd0e3 	bne	a0,a1,2418 <test_32+0x4>
    2434:	e8006013 	li	s9,24
    2438:	e0008013 	li	s8,32
    243c:	00fb70e3 	bne	v1,s9,24f4 <fail>

0000000000002440 <test_33>:
    2440:	20000013 	li	a0,0
    2444:	10002c13 	li	v0,11
    2448:	00000013 	nop
    244c:	08003813 	li	ra,14
    2450:	00000013 	nop
    2454:	18440033 	add	v1,ra,v0
    2458:	21000413 	add	a0,a0,1
    245c:	28000813 	li	a1,2
    2460:	f90bc8e3 	bne	a0,a1,2444 <test_33+0x4>
    2464:	e8006413 	li	s9,25
    2468:	e0008413 	li	s8,33
    246c:	00fb10e3 	bne	v1,s9,24f4 <fail>

0000000000002470 <test_34>:
    2470:	20000013 	li	a0,0
    2474:	10002c13 	li	v0,11
    2478:	00000013 	nop
    247c:	00000013 	nop
    2480:	08003c13 	li	ra,15
    2484:	18440033 	add	v1,ra,v0
    2488:	21000413 	add	a0,a0,1
    248c:	28000813 	li	a1,2
    2490:	f90bc8e3 	bne	a0,a1,2474 <test_34+0x4>
    2494:	e8006813 	li	s9,26
    2498:	e0008813 	li	s8,34
    249c:	00fab0e3 	bne	v1,s9,24f4 <fail>

00000000000024a0 <test_35>:
    24a0:	08003c13 	li	ra,15
    24a4:	10020033 	add	v0,zero,ra
    24a8:	e8003c13 	li	s9,15
    24ac:	e0008c13 	li	s8,35
    24b0:	00ba88e3 	bne	v0,s9,24f4 <fail>

00000000000024b4 <test_36>:
    24b4:	08008013 	li	ra,32
    24b8:	10400033 	add	v0,ra,zero
    24bc:	e8008013 	li	s9,32
    24c0:	e0009013 	li	s8,36
    24c4:	00ba60e3 	bne	v0,s9,24f4 <fail>

00000000000024c8 <test_37>:
    24c8:	08000033 	add	ra,zero,zero
    24cc:	e8000013 	li	s9,0
    24d0:	e0009413 	li	s8,37
    24d4:	007a40e3 	bne	ra,s9,24f4 <fail>

00000000000024d8 <test_38>:
    24d8:	08004013 	li	ra,16
    24dc:	10007813 	li	v0,30
    24e0:	00440033 	add	zero,ra,v0
    24e4:	e8000013 	li	s9,0
    24e8:	e0009813 	li	s8,38
    24ec:	003a10e3 	bne	zero,s9,24f4 <fail>
    24f0:	003820e3 	bne	zero,s8,2500 <pass>

00000000000024f4 <fail>:
    24f4:	07b801fb 	mtpcr	zero,s8,cr30
    24f8:	00000063 	b	24f8 <fail+0x4>
    24fc:	00000013 	nop

0000000000002500 <pass>:
    2500:	0000012f 	fence
    2504:	08000413 	li	ra,1
    2508:	078201fb 	mtpcr	zero,ra,cr30
    250c:	00000063 	b	250c <pass+0xc>
    2510:	00000013 	nop
    2514:	00000013 	nop
    2518:	00000013 	nop
    251c:	00000013 	nop
