
riscv_srlw:     file format elf64-littleriscv


Disassembly of section .text:

0000000000002000 <_start>:
    2000:	0c000037 	lui	ra,0x80000
    2004:	10000013 	li	v0,0
    2008:	184402bb 	srlw	v1,ra,v0
    200c:	ec000037 	lui	s9,0x80000
    2010:	e0000813 	li	s8,2
    2014:	28fae0e3 	bne	v1,s9,2584 <fail>

0000000000002018 <test_3>:
    2018:	0c000037 	lui	ra,0x80000
    201c:	10000413 	li	v0,1
    2020:	184402bb 	srlw	v1,ra,v0
    2024:	ea000037 	lui	s9,0x40000
    2028:	e0000c13 	li	s8,3
    202c:	28fab0e3 	bne	v1,s9,2584 <fail>

0000000000002030 <test_4>:
    2030:	0c000037 	lui	ra,0x80000
    2034:	10001c13 	li	v0,7
    2038:	184402bb 	srlw	v1,ra,v0
    203c:	e8080037 	lui	s9,0x1000
    2040:	e0001013 	li	s8,4
    2044:	28fa80e3 	bne	v1,s9,2584 <fail>

0000000000002048 <test_5>:
    2048:	0c000037 	lui	ra,0x80000
    204c:	10003813 	li	v0,14
    2050:	184402bb 	srlw	v1,ra,v0
    2054:	e8001037 	lui	s9,0x20
    2058:	e0001413 	li	s8,5
    205c:	28fa50e3 	bne	v1,s9,2584 <fail>

0000000000002060 <test_6>:
    2060:	0c000037 	lui	ra,0x80000
    2064:	0840041b 	addw	ra,ra,1
    2068:	10007c13 	li	v0,31
    206c:	184402bb 	srlw	v1,ra,v0
    2070:	e8000413 	li	s9,1
    2074:	e0001813 	li	s8,6
    2078:	28fa18e3 	bne	v1,s9,2584 <fail>

000000000000207c <test_7>:
    207c:	083ffc13 	li	ra,-1
    2080:	10000013 	li	v0,0
    2084:	184402bb 	srlw	v1,ra,v0
    2088:	e83ffc13 	li	s9,-1
    208c:	e0001c13 	li	s8,7
    2090:	20fbe8e3 	bne	v1,s9,2584 <fail>

0000000000002094 <test_8>:
    2094:	083ffc13 	li	ra,-1
    2098:	10000413 	li	v0,1
    209c:	184402bb 	srlw	v1,ra,v0
    20a0:	ec000037 	lui	s9,0x80000
    20a4:	ef7ffc1b 	addw	s9,s9,-1
    20a8:	e0002013 	li	s8,8
    20ac:	20fbb0e3 	bne	v1,s9,2584 <fail>

00000000000020b0 <test_9>:
    20b0:	083ffc13 	li	ra,-1
    20b4:	10001c13 	li	v0,7
    20b8:	184402bb 	srlw	v1,ra,v0
    20bc:	e8100037 	lui	s9,0x2000
    20c0:	ef7ffc1b 	addw	s9,s9,-1
    20c4:	e0002413 	li	s8,9
    20c8:	20fb78e3 	bne	v1,s9,2584 <fail>

00000000000020cc <test_10>:
    20cc:	083ffc13 	li	ra,-1
    20d0:	10003813 	li	v0,14
    20d4:	184402bb 	srlw	v1,ra,v0
    20d8:	e8002037 	lui	s9,0x40
    20dc:	ef7ffc1b 	addw	s9,s9,-1
    20e0:	e0002813 	li	s8,10
    20e4:	20fb40e3 	bne	v1,s9,2584 <fail>

00000000000020e8 <test_11>:
    20e8:	083ffc13 	li	ra,-1
    20ec:	10007c13 	li	v0,31
    20f0:	184402bb 	srlw	v1,ra,v0
    20f4:	e8000413 	li	s9,1
    20f8:	e0002c13 	li	s8,11
    20fc:	20fb10e3 	bne	v1,s9,2584 <fail>

0000000000002100 <test_12>:
    2100:	09090937 	lui	ra,0x21212
    2104:	0844841b 	addw	ra,ra,289
    2108:	10000013 	li	v0,0
    210c:	184402bb 	srlw	v1,ra,v0
    2110:	e9090937 	lui	s9,0x21212
    2114:	ef44841b 	addw	s9,s9,289
    2118:	e0003013 	li	s8,12
    211c:	20fad0e3 	bne	v1,s9,2584 <fail>

0000000000002120 <test_13>:
    2120:	09090937 	lui	ra,0x21212
    2124:	0844841b 	addw	ra,ra,289
    2128:	10000413 	li	v0,1
    212c:	184402bb 	srlw	v1,ra,v0
    2130:	e88484b7 	lui	s9,0x10909
    2134:	ef42401b 	addw	s9,s9,144
    2138:	e0003413 	li	s8,13
    213c:	20fa90e3 	bne	v1,s9,2584 <fail>

0000000000002140 <test_14>:
    2140:	09090937 	lui	ra,0x21212
    2144:	0844841b 	addw	ra,ra,289
    2148:	10001c13 	li	v0,7
    214c:	184402bb 	srlw	v1,ra,v0
    2150:	e8021237 	lui	s9,0x424
    2154:	ef49081b 	addw	s9,s9,578
    2158:	e0003813 	li	s8,14
    215c:	20fa50e3 	bne	v1,s9,2584 <fail>

0000000000002160 <test_15>:
    2160:	09090937 	lui	ra,0x21212
    2164:	0844841b 	addw	ra,ra,289
    2168:	10003813 	li	v0,14
    216c:	184402bb 	srlw	v1,ra,v0
    2170:	e8000437 	lui	s9,0x8
    2174:	ef52101b 	addw	s9,s9,1156
    2178:	e0003c13 	li	s8,15
    217c:	20fa10e3 	bne	v1,s9,2584 <fail>

0000000000002180 <test_16>:
    2180:	09090937 	lui	ra,0x21212
    2184:	0844841b 	addw	ra,ra,289
    2188:	10007c13 	li	v0,31
    218c:	184402bb 	srlw	v1,ra,v0
    2190:	e8000013 	li	s9,0
    2194:	e0004013 	li	s8,16
    2198:	18fbd8e3 	bne	v1,s9,2584 <fail>

000000000000219c <test_17>:
    219c:	09090937 	lui	ra,0x21212
    21a0:	0844841b 	addw	ra,ra,289
    21a4:	103f8013 	li	v0,-32
    21a8:	184402bb 	srlw	v1,ra,v0
    21ac:	e9090937 	lui	s9,0x21212
    21b0:	ef44841b 	addw	s9,s9,289
    21b4:	e0004413 	li	s8,17
    21b8:	18fb98e3 	bne	v1,s9,2584 <fail>

00000000000021bc <test_18>:
    21bc:	09090937 	lui	ra,0x21212
    21c0:	0844841b 	addw	ra,ra,289
    21c4:	103f8413 	li	v0,-31
    21c8:	184402bb 	srlw	v1,ra,v0
    21cc:	e88484b7 	lui	s9,0x10909
    21d0:	ef42401b 	addw	s9,s9,144
    21d4:	e0004813 	li	s8,18
    21d8:	18fb58e3 	bne	v1,s9,2584 <fail>

00000000000021dc <test_19>:
    21dc:	09090937 	lui	ra,0x21212
    21e0:	0844841b 	addw	ra,ra,289
    21e4:	103f9c13 	li	v0,-25
    21e8:	184402bb 	srlw	v1,ra,v0
    21ec:	e8021237 	lui	s9,0x424
    21f0:	ef49081b 	addw	s9,s9,578
    21f4:	e0004c13 	li	s8,19
    21f8:	18fb18e3 	bne	v1,s9,2584 <fail>

00000000000021fc <test_20>:
    21fc:	09090937 	lui	ra,0x21212
    2200:	0844841b 	addw	ra,ra,289
    2204:	103fb813 	li	v0,-18
    2208:	184402bb 	srlw	v1,ra,v0
    220c:	e8000437 	lui	s9,0x8
    2210:	ef52101b 	addw	s9,s9,1156
    2214:	e0005013 	li	s8,20
    2218:	18fad8e3 	bne	v1,s9,2584 <fail>

000000000000221c <test_21>:
    221c:	09090937 	lui	ra,0x21212
    2220:	0844841b 	addw	ra,ra,289
    2224:	103ffc13 	li	v0,-1
    2228:	184402bb 	srlw	v1,ra,v0
    222c:	e8000013 	li	s9,0
    2230:	e0005413 	li	s8,21
    2234:	18faa0e3 	bne	v1,s9,2584 <fail>

0000000000002238 <test_22>:
    2238:	0c000037 	lui	ra,0x80000
    223c:	10001c13 	li	v0,7
    2240:	084402bb 	srlw	ra,ra,v0
    2244:	e8080037 	lui	s9,0x1000
    2248:	e0005813 	li	s8,22
    224c:	187a70e3 	bne	ra,s9,2584 <fail>

0000000000002250 <test_23>:
    2250:	0c000037 	lui	ra,0x80000
    2254:	10003813 	li	v0,14
    2258:	104402bb 	srlw	v0,ra,v0
    225c:	e8001037 	lui	s9,0x20
    2260:	e0005c13 	li	s8,23
    2264:	18ba40e3 	bne	v0,s9,2584 <fail>

0000000000002268 <test_24>:
    2268:	08001c13 	li	ra,7
    226c:	084202bb 	srlw	ra,ra,ra
    2270:	e8000013 	li	s9,0
    2274:	e0006013 	li	s8,24
    2278:	187a18e3 	bne	ra,s9,2584 <fail>

000000000000227c <test_25>:
    227c:	20000013 	li	a0,0
    2280:	0c000037 	lui	ra,0x80000
    2284:	10001c13 	li	v0,7
    2288:	184402bb 	srlw	v1,ra,v0
    228c:	30c00013 	move	a2,v1
    2290:	21000413 	add	a0,a0,1
    2294:	28000813 	li	a1,2
    2298:	f90bd0e3 	bne	a0,a1,2280 <test_25+0x4>
    229c:	e8080037 	lui	s9,0x1000
    22a0:	e0006413 	li	s8,25
    22a4:	11bbc0e3 	bne	a2,s9,2584 <fail>

00000000000022a8 <test_26>:
    22a8:	20000013 	li	a0,0
    22ac:	0c000037 	lui	ra,0x80000
    22b0:	10003813 	li	v0,14
    22b4:	184402bb 	srlw	v1,ra,v0
    22b8:	00000013 	nop
    22bc:	30c00013 	move	a2,v1
    22c0:	21000413 	add	a0,a0,1
    22c4:	28000813 	li	a1,2
    22c8:	f90bc8e3 	bne	a0,a1,22ac <test_26+0x4>
    22cc:	e8001037 	lui	s9,0x20
    22d0:	e0006813 	li	s8,26
    22d4:	11bb60e3 	bne	a2,s9,2584 <fail>

00000000000022d8 <test_27>:
    22d8:	20000013 	li	a0,0
    22dc:	0c000037 	lui	ra,0x80000
    22e0:	10007c13 	li	v0,31
    22e4:	184402bb 	srlw	v1,ra,v0
    22e8:	00000013 	nop
    22ec:	00000013 	nop
    22f0:	30c00013 	move	a2,v1
    22f4:	21000413 	add	a0,a0,1
    22f8:	28000813 	li	a1,2
    22fc:	f90bc0e3 	bne	a0,a1,22dc <test_27+0x4>
    2300:	e8000413 	li	s9,1
    2304:	e0006c13 	li	s8,27
    2308:	11baf8e3 	bne	a2,s9,2584 <fail>

000000000000230c <test_28>:
    230c:	20000013 	li	a0,0
    2310:	0c000037 	lui	ra,0x80000
    2314:	10001c13 	li	v0,7
    2318:	184402bb 	srlw	v1,ra,v0
    231c:	21000413 	add	a0,a0,1
    2320:	28000813 	li	a1,2
    2324:	f90bd8e3 	bne	a0,a1,2310 <test_28+0x4>
    2328:	e8080037 	lui	s9,0x1000
    232c:	e0007013 	li	s8,28
    2330:	10faa8e3 	bne	v1,s9,2584 <fail>

0000000000002334 <test_29>:
    2334:	20000013 	li	a0,0
    2338:	0c000037 	lui	ra,0x80000
    233c:	10003813 	li	v0,14
    2340:	00000013 	nop
    2344:	184402bb 	srlw	v1,ra,v0
    2348:	21000413 	add	a0,a0,1
    234c:	28000813 	li	a1,2
    2350:	f90bd0e3 	bne	a0,a1,2338 <test_29+0x4>
    2354:	e8001037 	lui	s9,0x20
    2358:	e0007413 	li	s8,29
    235c:	10fa50e3 	bne	v1,s9,2584 <fail>

0000000000002360 <test_30>:
    2360:	20000013 	li	a0,0
    2364:	0c000037 	lui	ra,0x80000
    2368:	10007c13 	li	v0,31
    236c:	00000013 	nop
    2370:	00000013 	nop
    2374:	184402bb 	srlw	v1,ra,v0
    2378:	21000413 	add	a0,a0,1
    237c:	28000813 	li	a1,2
    2380:	f90bc8e3 	bne	a0,a1,2364 <test_30+0x4>
    2384:	e8000413 	li	s9,1
    2388:	e0007813 	li	s8,30
    238c:	08fbf0e3 	bne	v1,s9,2584 <fail>

0000000000002390 <test_31>:
    2390:	20000013 	li	a0,0
    2394:	0c000037 	lui	ra,0x80000
    2398:	00000013 	nop
    239c:	10001c13 	li	v0,7
    23a0:	184402bb 	srlw	v1,ra,v0
    23a4:	21000413 	add	a0,a0,1
    23a8:	28000813 	li	a1,2
    23ac:	f90bd0e3 	bne	a0,a1,2394 <test_31+0x4>
    23b0:	e8080037 	lui	s9,0x1000
    23b4:	e0007c13 	li	s8,31
    23b8:	08fb98e3 	bne	v1,s9,2584 <fail>

00000000000023bc <test_32>:
    23bc:	20000013 	li	a0,0
    23c0:	0c000037 	lui	ra,0x80000
    23c4:	00000013 	nop
    23c8:	10003813 	li	v0,14
    23cc:	00000013 	nop
    23d0:	184402bb 	srlw	v1,ra,v0
    23d4:	21000413 	add	a0,a0,1
    23d8:	28000813 	li	a1,2
    23dc:	f90bc8e3 	bne	a0,a1,23c0 <test_32+0x4>
    23e0:	e8001037 	lui	s9,0x20
    23e4:	e0008013 	li	s8,32
    23e8:	08fb38e3 	bne	v1,s9,2584 <fail>

00000000000023ec <test_33>:
    23ec:	20000013 	li	a0,0
    23f0:	0c000037 	lui	ra,0x80000
    23f4:	00000013 	nop
    23f8:	00000013 	nop
    23fc:	10007c13 	li	v0,31
    2400:	184402bb 	srlw	v1,ra,v0
    2404:	21000413 	add	a0,a0,1
    2408:	28000813 	li	a1,2
    240c:	f90bc8e3 	bne	a0,a1,23f0 <test_33+0x4>
    2410:	e8000413 	li	s9,1
    2414:	e0008413 	li	s8,33
    2418:	08fad8e3 	bne	v1,s9,2584 <fail>

000000000000241c <test_34>:
    241c:	20000013 	li	a0,0
    2420:	10001c13 	li	v0,7
    2424:	0c000037 	lui	ra,0x80000
    2428:	184402bb 	srlw	v1,ra,v0
    242c:	21000413 	add	a0,a0,1
    2430:	28000813 	li	a1,2
    2434:	f90bd8e3 	bne	a0,a1,2420 <test_34+0x4>
    2438:	e8080037 	lui	s9,0x1000
    243c:	e0008813 	li	s8,34
    2440:	08fa88e3 	bne	v1,s9,2584 <fail>

0000000000002444 <test_35>:
    2444:	20000013 	li	a0,0
    2448:	10003813 	li	v0,14
    244c:	0c000037 	lui	ra,0x80000
    2450:	00000013 	nop
    2454:	184402bb 	srlw	v1,ra,v0
    2458:	21000413 	add	a0,a0,1
    245c:	28000813 	li	a1,2
    2460:	f90bd0e3 	bne	a0,a1,2448 <test_35+0x4>
    2464:	e8001037 	lui	s9,0x20
    2468:	e0008c13 	li	s8,35
    246c:	08fa30e3 	bne	v1,s9,2584 <fail>

0000000000002470 <test_36>:
    2470:	20000013 	li	a0,0
    2474:	10007c13 	li	v0,31
    2478:	0c000037 	lui	ra,0x80000
    247c:	00000013 	nop
    2480:	00000013 	nop
    2484:	184402bb 	srlw	v1,ra,v0
    2488:	21000413 	add	a0,a0,1
    248c:	28000813 	li	a1,2
    2490:	f90bc8e3 	bne	a0,a1,2474 <test_36+0x4>
    2494:	e8000413 	li	s9,1
    2498:	e0009013 	li	s8,36
    249c:	00fbd0e3 	bne	v1,s9,2584 <fail>

00000000000024a0 <test_37>:
    24a0:	20000013 	li	a0,0
    24a4:	10001c13 	li	v0,7
    24a8:	00000013 	nop
    24ac:	0c000037 	lui	ra,0x80000
    24b0:	184402bb 	srlw	v1,ra,v0
    24b4:	21000413 	add	a0,a0,1
    24b8:	28000813 	li	a1,2
    24bc:	f90bd0e3 	bne	a0,a1,24a4 <test_37+0x4>
    24c0:	e8080037 	lui	s9,0x1000
    24c4:	e0009413 	li	s8,37
    24c8:	00fb78e3 	bne	v1,s9,2584 <fail>

00000000000024cc <test_38>:
    24cc:	20000013 	li	a0,0
    24d0:	10003813 	li	v0,14
    24d4:	00000013 	nop
    24d8:	0c000037 	lui	ra,0x80000
    24dc:	00000013 	nop
    24e0:	184402bb 	srlw	v1,ra,v0
    24e4:	21000413 	add	a0,a0,1
    24e8:	28000813 	li	a1,2
    24ec:	f90bc8e3 	bne	a0,a1,24d0 <test_38+0x4>
    24f0:	e8001037 	lui	s9,0x20
    24f4:	e0009813 	li	s8,38
    24f8:	00fb18e3 	bne	v1,s9,2584 <fail>

00000000000024fc <test_39>:
    24fc:	20000013 	li	a0,0
    2500:	10007c13 	li	v0,31
    2504:	00000013 	nop
    2508:	00000013 	nop
    250c:	0c000037 	lui	ra,0x80000
    2510:	184402bb 	srlw	v1,ra,v0
    2514:	21000413 	add	a0,a0,1
    2518:	28000813 	li	a1,2
    251c:	f90bc8e3 	bne	a0,a1,2500 <test_39+0x4>
    2520:	e8000413 	li	s9,1
    2524:	e0009c13 	li	s8,39
    2528:	00fab8e3 	bne	v1,s9,2584 <fail>

000000000000252c <test_40>:
    252c:	08003c13 	li	ra,15
    2530:	100202bb 	srlw	v0,zero,ra
    2534:	e8000013 	li	s9,0
    2538:	e000a013 	li	s8,40
    253c:	00ba90e3 	bne	v0,s9,2584 <fail>

0000000000002540 <test_41>:
    2540:	08008013 	li	ra,32
    2544:	104002bb 	srlw	v0,ra,zero
    2548:	e8008013 	li	s9,32
    254c:	e000a413 	li	s8,41
    2550:	00ba68e3 	bne	v0,s9,2584 <fail>

0000000000002554 <test_42>:
    2554:	080002bb 	srlw	ra,zero,zero
    2558:	e8000013 	li	s9,0
    255c:	e000a813 	li	s8,42
    2560:	007a48e3 	bne	ra,s9,2584 <fail>

0000000000002564 <test_43>:
    2564:	08100013 	li	ra,1024
    2568:	100000b7 	lui	v0,0x1
    256c:	10a0001b 	addw	v0,v0,-2048
    2570:	004402bb 	srlw	zero,ra,v0
    2574:	e8000013 	li	s9,0
    2578:	e000ac13 	li	s8,43
    257c:	003a10e3 	bne	zero,s9,2584 <fail>
    2580:	003820e3 	bne	zero,s8,2590 <pass>

0000000000002584 <fail>:
    2584:	07b801fb 	mtpcr	zero,s8,cr30
    2588:	00000063 	b	2588 <fail+0x4>
    258c:	00000013 	nop

0000000000002590 <pass>:
    2590:	0000012f 	fence
    2594:	08000413 	li	ra,1
    2598:	078201fb 	mtpcr	zero,ra,cr30
    259c:	00000063 	b	259c <pass+0xc>
    25a0:	00000013 	nop
    25a4:	00000013 	nop
    25a8:	00000013 	nop
    25ac:	00000013 	nop
