
riscv_jal:     file format elf64-littleriscv


Disassembly of section .text:

0000000000002000 <_start>:
    2000:	e0000813 	li	s8,2
    2004:	08000013 	li	ra,0

0000000000002008 <linkaddr_2>:
    2008:	0000046f 	jal	2018 <target_2>
    200c:	00000013 	nop
    2010:	00000013 	nop
    2014:	00001167 	j	2058 <fail>

0000000000002018 <target_2>:
    2018:	10000137 	lui	v0,0x2
    201c:	10802013 	add	v0,v0,8
    2020:	10801013 	add	v0,v0,4
    2024:	008268e3 	bne	v0,ra,2058 <fail>

0000000000002028 <test_3>:
    2028:	10000413 	li	v0,1
    202c:	0000056f 	jal	2040 <test_3+0x18>
    2030:	10800413 	add	v0,v0,1
    2034:	10800413 	add	v0,v0,1
    2038:	10800413 	add	v0,v0,1
    203c:	10800413 	add	v0,v0,1
    2040:	10800413 	add	v0,v0,1
    2044:	10800413 	add	v0,v0,1
    2048:	e8000c13 	li	s9,3
    204c:	e0000c13 	li	s8,3
    2050:	00ba10e3 	bne	v0,s9,2058 <fail>
    2054:	003820e3 	bne	zero,s8,2064 <pass>

0000000000002058 <fail>:
    2058:	07b801fb 	mtpcr	zero,s8,cr30
    205c:	00000063 	b	205c <fail+0x4>
    2060:	00000013 	nop

0000000000002064 <pass>:
    2064:	0000012f 	fence
    2068:	08000413 	li	ra,1
    206c:	078201fb 	mtpcr	zero,ra,cr30
    2070:	00000063 	b	2070 <pass+0xc>
    2074:	00000013 	nop
    2078:	00000013 	nop
    207c:	00000013 	nop
