
riscv_fence_i:     file format elf64-littleriscv


Disassembly of section .text:

0000000000002000 <_start>:
    2000:	6001bc13 	li	t0,111
    2004:	20000137 	lui	a0,0x2
    2008:	21025013 	add	a0,a0,148
    200c:	28000137 	lui	a1,0x2
    2010:	29412013 	add	a1,a1,72
    2014:	30000137 	lui	a2,0x2
    2018:	31820013 	add	a2,a2,128
    201c:	21000103 	lw	a0,0(a0)
    2020:	00000013 	nop
    2024:	00000013 	nop
    2028:	00000013 	nop
    202c:	00000013 	nop
    2030:	00000013 	nop
    2034:	00000013 	nop
    2038:	00000013 	nop
    203c:	00000013 	nop
    2040:	01480123 	sw	a0,0(a1)
    2044:	000000af 	fence.i
    2048:	63037813 	add	t0,t0,222

000000000000204c <test_2>:
    204c:	00000013 	nop
    2050:	e806f013 	li	s9,444
    2054:	e0000813 	li	s8,2
    2058:	033a88e3 	bne	t0,s9,209c <fail>
    205c:	68019013 	li	t1,100
    2060:	6b7ffc13 	add	t1,t1,-1
    2064:	fb41f8e3 	bnez	t1,2060 <test_2+0x14>
    2068:	01880123 	sw	a0,0(a2)
    206c:	000000af 	fence.i
    2070:	00000013 	nop
    2074:	00000013 	nop
    2078:	00000013 	nop
    207c:	00000013 	nop
    2080:	6308ac13 	add	t0,t0,555

0000000000002084 <test_3>:
    2084:	00000013 	nop
    2088:	e80c2413 	li	s9,777
    208c:	e0000c13 	li	s8,3
    2090:	033a18e3 	bne	t0,s9,209c <fail>
    2094:	63053413 	add	t0,t0,333
    2098:	003820e3 	bne	zero,s8,20a8 <pass>

000000000000209c <fail>:
    209c:	07b801fb 	mtpcr	zero,s8,cr30
    20a0:	00000063 	b	20a0 <fail+0x4>
    20a4:	00000013 	nop

00000000000020a8 <pass>:
    20a8:	0000012f 	fence
    20ac:	08000413 	li	ra,1
    20b0:	078201fb 	mtpcr	zero,ra,cr30
    20b4:	00000063 	b	20b4 <pass+0xc>
    20b8:	00000013 	nop
    20bc:	00000013 	nop
